;/////////////////////////////////////////////////////////////////////////////////
;// Code Generator: BoostC Compiler - http://www.sourceboost.com
;// Version       : 6.95
;// License Type  : Full License
;// Limitations   : PIC12,PIC16 max code size:Unlimited, max RAM banks:Unlimited, Non commercial use only
;/////////////////////////////////////////////////////////////////////////////////

	ORG 0x00000000
0000  160A  	BSF PCLATH,4
0001  2D4D  	GOTO	_startup
	ORG 0x00000004
0004  00FF  	MOVWF Int1Context
0005  0E03  	SWAPF STATUS, W
0006  1283  	BCF STATUS, RP0
0007  1303  	BCF STATUS, RP1
0008  00D0  	MOVWF Int1BContext
0009  0E0A  	SWAPF PCLATH, W
000A  00D1  	MOVWF Int1BContext+D'1'
000B  0E04  	SWAPF FSR, W
000C  00D2  	MOVWF Int1BContext+D'2'
000D  118A  	BCF PCLATH,3
000E  160A  	BSF PCLATH,4
000F  2D75  	GOTO	interrupt
	ORG 0x00000010
0010        delay_us_00000
0010        ; { delay_us ; function begin
0010  3001  	MOVLW 0x01
0011  07E7  	ADDWF delay_us_00000_arg_del, F
0012  0CE7  	RRF delay_us_00000_arg_del, F
0013  30FF  	MOVLW 0xFF
0014  05E7  	ANDWF delay_us_00000_arg_del, F
0015        label1
0015  0000  	NOP
0016  0000  	NOP
0017  0BE7  	DECFSZ delay_us_00000_arg_del, F
0018  2815  	GOTO	label1
0019  0008  	RETURN
001A        ; } delay_us function end

	ORG 0x0000001A
001A        delay_10us_00000
001A        ; { delay_10us ; function begin
001A  08F6  	MOVF delay_10us_00000_arg_del, F
001B  1D03  	BTFSS STATUS,Z
001C  281E  	GOTO	label2
001D  0008  	RETURN
001E        label2
001E  3004  	MOVLW 0x04
001F        label3
001F  0000  	NOP
0020  3EFF  	ADDLW 0xFF
0021  1D03  	BTFSS STATUS,Z
0022  281F  	GOTO	label3
0023  0000  	NOP
0024  0000  	NOP
0025  0BF6  	DECFSZ delay_10us_00000_arg_del, F
0026  281E  	GOTO	label2
0027  0008  	RETURN
0028        ; } delay_10us function end

	ORG 0x00000028
0028        delay_ms_00000
0028        ; { delay_ms ; function begin
0028  08E1  	MOVF delay_ms_00000_arg_del, F
0029  1D03  	BTFSS STATUS,Z
002A  282C  	GOTO	label4
002B  0008  	RETURN
002C        label4
002C  30F9  	MOVLW 0xF9
002D        label5
002D  0000  	NOP
002E  0000  	NOP
002F  0000  	NOP
0030  0000  	NOP
0031  0000  	NOP
0032  0000  	NOP
0033  3EFF  	ADDLW 0xFF
0034  1D03  	BTFSS STATUS,Z
0035  282D  	GOTO	label5
0036  0000  	NOP
0037  0000  	NOP
0038  0000  	NOP
0039  0000  	NOP
003A  0000  	NOP
003B  0000  	NOP
003C  0000  	NOP
003D  0BE1  	DECFSZ delay_ms_00000_arg_del, F
003E  282C  	GOTO	label4
003F  0008  	RETURN
0040        ; } delay_ms function end

	ORG 0x00000040
0040        delay_s_00000
0040        ; { delay_s ; function begin
0040        label6
0040  30FA  	MOVLW 0xFA
0041  00E1  	MOVWF delay_ms_00000_arg_del
0042  2028  	CALL delay_ms_00000
0043  30FA  	MOVLW 0xFA
0044  00E1  	MOVWF delay_ms_00000_arg_del
0045  2028  	CALL delay_ms_00000
0046  30FA  	MOVLW 0xFA
0047  00E1  	MOVWF delay_ms_00000_arg_del
0048  2028  	CALL delay_ms_00000
0049  30FA  	MOVLW 0xFA
004A  00E1  	MOVWF delay_ms_00000_arg_del
004B  2028  	CALL delay_ms_00000
004C  0BE0  	DECFSZ delay_s_00000_arg_del, F
004D  2840  	GOTO	label6
004E  0008  	RETURN
004F        ; } delay_s function end

	ORG 0x0000004F
004F        shift32Rig_0002F
004F        ; { shift32RightJammingbSig ; function begin
004F  08B4  	MOVF shift32Rig_0002F_arg_shiftCount, F
0050  1D03  	BTFSS STATUS,Z
0051  2855  	GOTO	label7
0052  08B5  	MOVF shift32Rig_0002F_arg_shiftCount+D'1', F
0053  1903  	BTFSC STATUS,Z
0054  0008  	RETURN
0055        label7
0055  3020  	MOVLW 0x20
0056  0234  	SUBWF shift32Rig_0002F_arg_shiftCount, W
0057  0835  	MOVF shift32Rig_0002F_arg_shiftCount+D'1', W
0058  1803  	BTFSC STATUS,C
0059  2873  	GOTO	label10
005A  1D03  	BTFSS STATUS,Z
005B  2873  	GOTO	label10
005C  1229  	BCF shift32Rig_0002F_3_stickyBit,4
005D  0834  	MOVF shift32Rig_0002F_arg_shiftCount, W
005E  00B6  	MOVWF shift32Rig_0002F_3_count
005F        label8
005F  1283  	BCF STATUS, RP0
0060  1C28  	BTFSS gbl_17_gbl_bSig,0
0061  2864  	GOTO	label9
0062  1683  	BSF STATUS, RP0
0063  1629  	BSF shift32Rig_0002F_3_stickyBit,4
0064        label9
0064  1003  	BCF STATUS,C
0065  1283  	BCF STATUS, RP0
0066  0CAB  	RRF gbl_17_gbl_bSig+D'3', F
0067  0CAA  	RRF gbl_17_gbl_bSig+D'2', F
0068  0CA9  	RRF gbl_17_gbl_bSig+D'1', F
0069  0CA8  	RRF gbl_17_gbl_bSig, F
006A  1683  	BSF STATUS, RP0
006B  03B6  	DECF shift32Rig_0002F_3_count, F
006C  1D03  	BTFSS STATUS,Z
006D  285F  	GOTO	label8
006E  1E29  	BTFSS shift32Rig_0002F_3_stickyBit,4
006F  0008  	RETURN
0070  1283  	BCF STATUS, RP0
0071  1428  	BSF gbl_17_gbl_bSig,0
0072  0008  	RETURN
0073        label10
0073  1283  	BCF STATUS, RP0
0074  0828  	MOVF gbl_17_gbl_bSig, W
0075  0429  	IORWF gbl_17_gbl_bSig+D'1', W
0076  042A  	IORWF gbl_17_gbl_bSig+D'2', W
0077  042B  	IORWF gbl_17_gbl_bSig+D'3', W
0078  39FF  	ANDLW 0xFF
0079  1903  	BTFSC STATUS,Z
007A  0008  	RETURN
007B  3001  	MOVLW 0x01
007C  00A8  	MOVWF gbl_17_gbl_bSig
007D  01A9  	CLRF gbl_17_gbl_bSig+D'1'
007E  01AA  	CLRF gbl_17_gbl_bSig+D'2'
007F  01AB  	CLRF gbl_17_gbl_bSig+D'3'
0080  0008  	RETURN
0081        ; } shift32RightJammingbSig function end

	ORG 0x00000081
0081        roundFloat_0001E
0081        ; { roundFloat32NA ; function begin
0081  1683  	BSF STATUS, RP0
0082  1303  	BCF STATUS, RP1
0083  01B6  	CLRF roundFloat_0001E_1_roundNe_0001F
0084  3040  	MOVLW 0x40
0085  00B7  	MOVWF roundFloat_0001E_1_roundIn_00020
0086  1283  	BCF STATUS, RP0
0087  08D8  	MOVF gbl_float_rounding_mode, F
0088  1D03  	BTFSS STATUS,Z
0089  288D  	GOTO	label11
008A  3001  	MOVLW 0x01
008B  1683  	BSF STATUS, RP0
008C  00B6  	MOVWF roundFloat_0001E_1_roundNe_0001F
008D        label11
008D  1683  	BSF STATUS, RP0
008E  08B6  	MOVF roundFloat_0001E_1_roundNe_0001F, F
008F  1D03  	BTFSS STATUS,Z
0090  28AC  	GOTO	label14
0091  1283  	BCF STATUS, RP0
0092  0858  	MOVF gbl_float_rounding_mode, W
0093  3A03  	XORLW 0x03
0094  1D03  	BTFSS STATUS,Z
0095  2899  	GOTO	label12
0096  1683  	BSF STATUS, RP0
0097  01B7  	CLRF roundFloat_0001E_1_roundIn_00020
0098  28AC  	GOTO	label14
0099        label12
0099  307F  	MOVLW 0x7F
009A  1683  	BSF STATUS, RP0
009B  00B7  	MOVWF roundFloat_0001E_1_roundIn_00020
009C  1283  	BCF STATUS, RP0
009D  08DE  	MOVF gbl_17_gbl_zSign, F
009E  1903  	BTFSC STATUS,Z
009F  28A7  	GOTO	label13
00A0  0858  	MOVF gbl_float_rounding_mode, W
00A1  3A02  	XORLW 0x02
00A2  1D03  	BTFSS STATUS,Z
00A3  28AC  	GOTO	label14
00A4  1683  	BSF STATUS, RP0
00A5  01B7  	CLRF roundFloat_0001E_1_roundIn_00020
00A6  28AC  	GOTO	label14
00A7        label13
00A7  0358  	DECF gbl_float_rounding_mode, W
00A8  1D03  	BTFSS STATUS,Z
00A9  28AC  	GOTO	label14
00AA  1683  	BSF STATUS, RP0
00AB  01B7  	CLRF roundFloat_0001E_1_roundIn_00020
00AC        label14
00AC  1283  	BCF STATUS, RP0
00AD  082C  	MOVF gbl_17_gbl_zSig, W
00AE  1683  	BSF STATUS, RP0
00AF  00BA  	MOVWF roundFloat_0001E_1_zSigPlusRound
00B0  1283  	BCF STATUS, RP0
00B1  082D  	MOVF gbl_17_gbl_zSig+D'1', W
00B2  1683  	BSF STATUS, RP0
00B3  00BB  	MOVWF roundFloat_0001E_1_zSigPlusRound+D'1'
00B4  1283  	BCF STATUS, RP0
00B5  082E  	MOVF gbl_17_gbl_zSig+D'2', W
00B6  1683  	BSF STATUS, RP0
00B7  00BC  	MOVWF roundFloat_0001E_1_zSigPlusRound+D'2'
00B8  1283  	BCF STATUS, RP0
00B9  082F  	MOVF gbl_17_gbl_zSig+D'3', W
00BA  1683  	BSF STATUS, RP0
00BB  00BD  	MOVWF roundFloat_0001E_1_zSigPlusRound+D'3'
00BC  0837  	MOVF roundFloat_0001E_1_roundIn_00020, W
00BD  00BE  	MOVWF CompTempVar823
00BE  01BF  	CLRF CompTempVar823+D'1'
00BF  01C0  	CLRF CompTempVar823+D'2'
00C0  01C1  	CLRF CompTempVar823+D'3'
00C1  1FB7  	BTFSS roundFloat_0001E_1_roundIn_00020,7
00C2  28C6  	GOTO	label15
00C3  03BF  	DECF CompTempVar823+D'1', F
00C4  03C0  	DECF CompTempVar823+D'2', F
00C5  03C1  	DECF CompTempVar823+D'3', F
00C6        label15
00C6  083E  	MOVF CompTempVar823, W
00C7  07BA  	ADDWF roundFloat_0001E_1_zSigPlusRound, F
00C8  083F  	MOVF CompTempVar823+D'1', W
00C9  1803  	BTFSC STATUS,C
00CA  0F3F  	INCFSZ CompTempVar823+D'1', W
00CB  07BB  	ADDWF roundFloat_0001E_1_zSigPlusRound+D'1', F
00CC  0840  	MOVF CompTempVar823+D'2', W
00CD  1803  	BTFSC STATUS,C
00CE  0F40  	INCFSZ CompTempVar823+D'2', W
00CF  07BC  	ADDWF roundFloat_0001E_1_zSigPlusRound+D'2', F
00D0  0841  	MOVF CompTempVar823+D'3', W
00D1  1803  	BTFSC STATUS,C
00D2  0F41  	INCFSZ CompTempVar823+D'3', W
00D3  07BD  	ADDWF roundFloat_0001E_1_zSigPlusRound+D'3', F
00D4  307F  	MOVLW 0x7F
00D5  1283  	BCF STATUS, RP0
00D6  052C  	ANDWF gbl_17_gbl_zSig, W
00D7  1683  	BSF STATUS, RP0
00D8  00B8  	MOVWF roundFloat_0001E_1_roundBits
00D9  3000  	MOVLW 0x00
00DA  1283  	BCF STATUS, RP0
00DB  0254  	SUBWF gbl_17_gbl_zExp+D'1', W
00DC  1D03  	BTFSS STATUS,Z
00DD  28E0  	GOTO	label16
00DE  30FD  	MOVLW 0xFD
00DF  0253  	SUBWF gbl_17_gbl_zExp, W
00E0        label16
00E0  1C03  	BTFSS STATUS,C
00E1  298F  	GOTO	label30
00E2  0853  	MOVF gbl_17_gbl_zExp, W
00E3  3CFD  	SUBLW 0xFD
00E4  0854  	MOVF gbl_17_gbl_zExp+D'1', W
00E5  1803  	BTFSC STATUS,C
00E6  1D03  	BTFSS STATUS,Z
00E7  1BD4  	BTFSC gbl_17_gbl_zExp+D'1',7
00E8  28EA  	GOTO	label17
00E9  28F3  	GOTO	label18
00EA        label17
00EA  30FD  	MOVLW 0xFD
00EB  0653  	XORWF gbl_17_gbl_zExp, W
00EC  1903  	BTFSC STATUS,Z
00ED  0854  	MOVF gbl_17_gbl_zExp+D'1', W
00EE  1D03  	BTFSS STATUS,Z
00EF  290E  	GOTO	label20
00F0  1683  	BSF STATUS, RP0
00F1  1FBD  	BTFSS roundFloat_0001E_1_zSigPlusRound+D'3',7
00F2  290E  	GOTO	label20
00F3        label18
00F3  3028  	MOVLW 0x28
00F4  1283  	BCF STATUS, RP0
00F5  04D9  	IORWF gbl_float_exception_flags, F
00F6  1683  	BSF STATUS, RP0
00F7  08B7  	MOVF roundFloat_0001E_1_roundIn_00020, F
00F8  1D03  	BTFSS STATUS,Z
00F9  2905  	GOTO	label19
00FA  307F  	MOVLW 0x7F
00FB  1283  	BCF STATUS, RP0
00FC  00AE  	MOVWF gbl_17_gbl_zSig+D'2'
00FD  30FF  	MOVLW 0xFF
00FE  00AC  	MOVWF gbl_17_gbl_zSig
00FF  00AD  	MOVWF gbl_17_gbl_zSig+D'1'
0100  01AF  	CLRF gbl_17_gbl_zSig+D'3'
0101  30FE  	MOVLW 0xFE
0102  00D3  	MOVWF gbl_17_gbl_zExp
0103  01D4  	CLRF gbl_17_gbl_zExp+D'1'
0104  0008  	RETURN
0105        label19
0105  30FF  	MOVLW 0xFF
0106  1283  	BCF STATUS, RP0
0107  00D3  	MOVWF gbl_17_gbl_zExp
0108  01D4  	CLRF gbl_17_gbl_zExp+D'1'
0109  01AC  	CLRF gbl_17_gbl_zSig
010A  01AD  	CLRF gbl_17_gbl_zSig+D'1'
010B  01AE  	CLRF gbl_17_gbl_zSig+D'2'
010C  01AF  	CLRF gbl_17_gbl_zSig+D'3'
010D  0008  	RETURN
010E        label20
010E  1283  	BCF STATUS, RP0
010F  1FD4  	BTFSS gbl_17_gbl_zExp+D'1',7
0110  298F  	GOTO	label30
0111  1683  	BSF STATUS, RP0
0112  01BF  	CLRF CompTempVar830
0113  1283  	BCF STATUS, RP0
0114  0357  	DECF gbl_float_detect_tininess, W
0115  1D03  	BTFSS STATUS,Z
0116  2919  	GOTO	label21
0117  1683  	BSF STATUS, RP0
0118  0ABF  	INCF CompTempVar830, F
0119        label21
0119  1683  	BSF STATUS, RP0
011A  01BE  	CLRF CompTempVar829
011B  1283  	BCF STATUS, RP0
011C  0854  	MOVF gbl_17_gbl_zExp+D'1', W
011D  3A80  	XORLW 0x80
011E  1683  	BSF STATUS, RP0
011F  00C3  	MOVWF CompTempVar836
0120  307F  	MOVLW 0x7F
0121  0243  	SUBWF CompTempVar836, W
0122  1D03  	BTFSS STATUS,Z
0123  2927  	GOTO	label22
0124  30FF  	MOVLW 0xFF
0125  1283  	BCF STATUS, RP0
0126  0253  	SUBWF gbl_17_gbl_zExp, W
0127        label22
0127  1803  	BTFSC STATUS,C
0128  292B  	GOTO	label23
0129  1683  	BSF STATUS, RP0
012A  0ABE  	INCF CompTempVar829, F
012B        label23
012B  1683  	BSF STATUS, RP0
012C  01C2  	CLRF CompTempVar834
012D  08BE  	MOVF CompTempVar829, F
012E  1903  	BTFSC STATUS,Z
012F  08BF  	MOVF CompTempVar830, F
0130  1D03  	BTFSS STATUS,Z
0131  0AC2  	INCF CompTempVar834, F
0132  3080  	MOVLW 0x80
0133  053D  	ANDWF roundFloat_0001E_1_zSigPlusRound+D'3', W
0134  00C0  	MOVWF CompTempVar832
0135  01C1  	CLRF CompTempVar833
0136  0AC1  	INCF CompTempVar833, F
0137  08C0  	MOVF CompTempVar832, F
0138  1D03  	BTFSS STATUS,Z
0139  1041  	BCF CompTempVar833,0
013A  01B9  	CLRF roundFloat_0001E_1_isTiny
013B  08C1  	MOVF CompTempVar833, F
013C  1903  	BTFSC STATUS,Z
013D  08C2  	MOVF CompTempVar834, F
013E  1D03  	BTFSS STATUS,Z
013F  0AB9  	INCF roundFloat_0001E_1_isTiny, F
0140  1283  	BCF STATUS, RP0
0141  08D3  	MOVF gbl_17_gbl_zExp, F
0142  1903  	BTFSC STATUS,Z
0143  08D4  	MOVF gbl_17_gbl_zExp+D'1', F
0144  1903  	BTFSC STATUS,Z
0145  2980  	GOTO	label29
0146  0953  	COMF gbl_17_gbl_zExp, W
0147  1683  	BSF STATUS, RP0
0148  00BE  	MOVWF CompTempVar837
0149  1283  	BCF STATUS, RP0
014A  0954  	COMF gbl_17_gbl_zExp+D'1', W
014B  1683  	BSF STATUS, RP0
014C  00BF  	MOVWF CompTempVar838
014D  0ABE  	INCF CompTempVar837, F
014E  1903  	BTFSC STATUS,Z
014F  0ABF  	INCF CompTempVar838, F
0150  3020  	MOVLW 0x20
0151  023E  	SUBWF CompTempVar837, W
0152  083F  	MOVF CompTempVar838, W
0153  1803  	BTFSC STATUS,C
0154  2957  	GOTO	label24
0155  1903  	BTFSC STATUS,Z
0156  2959  	GOTO	label25
0157        label24
0157  1FBF  	BTFSS CompTempVar838,7
0158  2973  	GOTO	label28
0159        label25
0159  1040  	BCF roundFloat_0001E_30_stickyBit,0
015A  1283  	BCF STATUS, RP0
015B  0953  	COMF gbl_17_gbl_zExp, W
015C  1683  	BSF STATUS, RP0
015D  00C1  	MOVWF roundFloat_0001E_30_count
015E  0AC1  	INCF roundFloat_0001E_30_count, F
015F        label26
015F  1283  	BCF STATUS, RP0
0160  1C2C  	BTFSS gbl_17_gbl_zSig,0
0161  2964  	GOTO	label27
0162  1683  	BSF STATUS, RP0
0163  1440  	BSF roundFloat_0001E_30_stickyBit,0
0164        label27
0164  1003  	BCF STATUS,C
0165  1283  	BCF STATUS, RP0
0166  0CAF  	RRF gbl_17_gbl_zSig+D'3', F
0167  0CAE  	RRF gbl_17_gbl_zSig+D'2', F
0168  0CAD  	RRF gbl_17_gbl_zSig+D'1', F
0169  0CAC  	RRF gbl_17_gbl_zSig, F
016A  1683  	BSF STATUS, RP0
016B  03C1  	DECF roundFloat_0001E_30_count, F
016C  1D03  	BTFSS STATUS,Z
016D  295F  	GOTO	label26
016E  1C40  	BTFSS roundFloat_0001E_30_stickyBit,0
016F  2980  	GOTO	label29
0170  1283  	BCF STATUS, RP0
0171  142C  	BSF gbl_17_gbl_zSig,0
0172  2980  	GOTO	label29
0173        label28
0173  1283  	BCF STATUS, RP0
0174  082C  	MOVF gbl_17_gbl_zSig, W
0175  042D  	IORWF gbl_17_gbl_zSig+D'1', W
0176  042E  	IORWF gbl_17_gbl_zSig+D'2', W
0177  042F  	IORWF gbl_17_gbl_zSig+D'3', W
0178  39FF  	ANDLW 0xFF
0179  1903  	BTFSC STATUS,Z
017A  2980  	GOTO	label29
017B  3001  	MOVLW 0x01
017C  00AC  	MOVWF gbl_17_gbl_zSig
017D  01AD  	CLRF gbl_17_gbl_zSig+D'1'
017E  01AE  	CLRF gbl_17_gbl_zSig+D'2'
017F  01AF  	CLRF gbl_17_gbl_zSig+D'3'
0180        label29
0180  1283  	BCF STATUS, RP0
0181  01D3  	CLRF gbl_17_gbl_zExp
0182  01D4  	CLRF gbl_17_gbl_zExp+D'1'
0183  307F  	MOVLW 0x7F
0184  052C  	ANDWF gbl_17_gbl_zSig, W
0185  1683  	BSF STATUS, RP0
0186  00B8  	MOVWF roundFloat_0001E_1_roundBits
0187  08B9  	MOVF roundFloat_0001E_1_isTiny, F
0188  1903  	BTFSC STATUS,Z
0189  298F  	GOTO	label30
018A  08B8  	MOVF roundFloat_0001E_1_roundBits, F
018B  1903  	BTFSC STATUS,Z
018C  298F  	GOTO	label30
018D  1283  	BCF STATUS, RP0
018E  1659  	BSF gbl_float_exception_flags,4
018F        label30
018F  1683  	BSF STATUS, RP0
0190  08B8  	MOVF roundFloat_0001E_1_roundBits, F
0191  1903  	BTFSC STATUS,Z
0192  2995  	GOTO	label31
0193  1283  	BCF STATUS, RP0
0194  16D9  	BSF gbl_float_exception_flags,5
0195        label31
0195  1683  	BSF STATUS, RP0
0196  0837  	MOVF roundFloat_0001E_1_roundIn_00020, W
0197  00BE  	MOVWF CompTempVar841
0198  01BF  	CLRF CompTempVar841+D'1'
0199  01C0  	CLRF CompTempVar841+D'2'
019A  01C1  	CLRF CompTempVar841+D'3'
019B  1FB7  	BTFSS roundFloat_0001E_1_roundIn_00020,7
019C  29A0  	GOTO	label32
019D  03BF  	DECF CompTempVar841+D'1', F
019E  03C0  	DECF CompTempVar841+D'2', F
019F  03C1  	DECF CompTempVar841+D'3', F
01A0        label32
01A0  083E  	MOVF CompTempVar841, W
01A1  1283  	BCF STATUS, RP0
01A2  07AC  	ADDWF gbl_17_gbl_zSig, F
01A3  1683  	BSF STATUS, RP0
01A4  083F  	MOVF CompTempVar841+D'1', W
01A5  1C03  	BTFSS STATUS,C
01A6  29AA  	GOTO	label33
01A7  0F3F  	INCFSZ CompTempVar841+D'1', W
01A8  29AA  	GOTO	label33
01A9  29AC  	GOTO	label34
01AA        label33
01AA  1283  	BCF STATUS, RP0
01AB  07AD  	ADDWF gbl_17_gbl_zSig+D'1', F
01AC        label34
01AC  1683  	BSF STATUS, RP0
01AD  0840  	MOVF CompTempVar841+D'2', W
01AE  1C03  	BTFSS STATUS,C
01AF  29B3  	GOTO	label35
01B0  0F40  	INCFSZ CompTempVar841+D'2', W
01B1  29B3  	GOTO	label35
01B2  29B5  	GOTO	label36
01B3        label35
01B3  1283  	BCF STATUS, RP0
01B4  07AE  	ADDWF gbl_17_gbl_zSig+D'2', F
01B5        label36
01B5  1683  	BSF STATUS, RP0
01B6  0841  	MOVF CompTempVar841+D'3', W
01B7  1C03  	BTFSS STATUS,C
01B8  29BC  	GOTO	label37
01B9  0F41  	INCFSZ CompTempVar841+D'3', W
01BA  29BC  	GOTO	label37
01BB  29BE  	GOTO	label38
01BC        label37
01BC  1283  	BCF STATUS, RP0
01BD  07AF  	ADDWF gbl_17_gbl_zSig+D'3', F
01BE        label38
01BE  3007  	MOVLW 0x07
01BF  1683  	BSF STATUS, RP0
01C0  00BE  	MOVWF roundFloat_0001E_44_i
01C1        label39
01C1  08BE  	MOVF roundFloat_0001E_44_i, F
01C2  1903  	BTFSC STATUS,Z
01C3  29CD  	GOTO	label40
01C4  1003  	BCF STATUS,C
01C5  1283  	BCF STATUS, RP0
01C6  0CAF  	RRF gbl_17_gbl_zSig+D'3', F
01C7  0CAE  	RRF gbl_17_gbl_zSig+D'2', F
01C8  0CAD  	RRF gbl_17_gbl_zSig+D'1', F
01C9  0CAC  	RRF gbl_17_gbl_zSig, F
01CA  1683  	BSF STATUS, RP0
01CB  03BE  	DECF roundFloat_0001E_44_i, F
01CC  29C1  	GOTO	label39
01CD        label40
01CD  3040  	MOVLW 0x40
01CE  0638  	XORWF roundFloat_0001E_1_roundBits, W
01CF  1D03  	BTFSS STATUS,Z
01D0  29D6  	GOTO	label41
01D1  08B6  	MOVF roundFloat_0001E_1_roundNe_0001F, F
01D2  1903  	BTFSC STATUS,Z
01D3  29D6  	GOTO	label41
01D4  1283  	BCF STATUS, RP0
01D5  102C  	BCF gbl_17_gbl_zSig,0
01D6        label41
01D6  1283  	BCF STATUS, RP0
01D7  082C  	MOVF gbl_17_gbl_zSig, W
01D8  042D  	IORWF gbl_17_gbl_zSig+D'1', W
01D9  042E  	IORWF gbl_17_gbl_zSig+D'2', W
01DA  042F  	IORWF gbl_17_gbl_zSig+D'3', W
01DB  39FF  	ANDLW 0xFF
01DC  1D03  	BTFSS STATUS,Z
01DD  0008  	RETURN
01DE  01D3  	CLRF gbl_17_gbl_zExp
01DF  01D4  	CLRF gbl_17_gbl_zExp+D'1'
01E0  0008  	RETURN
01E1        ; } roundFloat32NA function end

	ORG 0x000001E1
01E1        packFloat3_00021
01E1        ; { packFloat32NA ; function begin
01E1  1283  	BCF STATUS, RP0
01E2  1303  	BCF STATUS, RP1
01E3  1C2F  	BTFSS gbl_17_gbl_zSig+D'3',0
01E4  29E9  	GOTO	label42
01E5  3002  	MOVLW 0x02
01E6  07D3  	ADDWF gbl_17_gbl_zExp, F
01E7  1803  	BTFSC STATUS,C
01E8  0AD4  	INCF gbl_17_gbl_zExp+D'1', F
01E9        label42
01E9  1FAE  	BTFSS gbl_17_gbl_zSig+D'2',7
01EA  29EF  	GOTO	label43
01EB  0AD3  	INCF gbl_17_gbl_zExp, F
01EC  1D03  	BTFSS STATUS,Z
01ED  29EF  	GOTO	label43
01EE  0AD4  	INCF gbl_17_gbl_zExp+D'1', F
01EF        label43
01EF  0853  	MOVF gbl_17_gbl_zExp, W
01F0  00AF  	MOVWF gbl_17_gbl_zSig+D'3'
01F1  1003  	BCF STATUS,C
01F2  0CAF  	RRF gbl_17_gbl_zSig+D'3', F
01F3  13AE  	BCF gbl_17_gbl_zSig+D'2',7
01F4  1853  	BTFSC gbl_17_gbl_zExp,0
01F5  17AE  	BSF gbl_17_gbl_zSig+D'2',7
01F6  08DE  	MOVF gbl_17_gbl_zSign, F
01F7  1D03  	BTFSS STATUS,Z
01F8  17AF  	BSF gbl_17_gbl_zSig+D'3',7
01F9  0008  	RETURN
01FA        ; } packFloat32NA function end

	ORG 0x000001FA
01FA        mul32To32s_00030
01FA        ; { mul32To32sticky ; function begin
01FA  3040  	MOVLW 0x40
01FB  1683  	BSF STATUS, RP0
01FC  1303  	BCF STATUS, RP1
01FD  00AE  	MOVWF mul32To32s_00030_1_i
01FE  01B6  	CLRF mul32To32s_00030_1_zSig0
01FF  01B7  	CLRF mul32To32s_00030_1_zSig0+D'1'
0200  01B8  	CLRF mul32To32s_00030_1_zSig0+D'2'
0201  01B9  	CLRF mul32To32s_00030_1_zSig0+D'3'
0202  1283  	BCF STATUS, RP0
0203  01AC  	CLRF gbl_17_gbl_zSig
0204  01AD  	CLRF gbl_17_gbl_zSig+D'1'
0205  01AE  	CLRF gbl_17_gbl_zSig+D'2'
0206  01AF  	CLRF gbl_17_gbl_zSig+D'3'
0207        label44
0207  1683  	BSF STATUS, RP0
0208  082E  	MOVF mul32To32s_00030_1_i, W
0209  00AF  	MOVWF CompTempVar1128
020A  03AE  	DECF mul32To32s_00030_1_i, F
020B  08AF  	MOVF CompTempVar1128, F
020C  1903  	BTFSC STATUS,Z
020D  2A69  	GOTO	label54
020E  1003  	BCF STATUS,C
020F  1283  	BCF STATUS, RP0
0210  0DAC  	RLF gbl_17_gbl_zSig, F
0211  0DAD  	RLF gbl_17_gbl_zSig+D'1', F
0212  0DAE  	RLF gbl_17_gbl_zSig+D'2', F
0213  0DAF  	RLF gbl_17_gbl_zSig+D'3', F
0214  1683  	BSF STATUS, RP0
0215  1FB9  	BTFSS mul32To32s_00030_1_zSig0+D'3',7
0216  2A19  	GOTO	label45
0217  1283  	BCF STATUS, RP0
0218  142C  	BSF gbl_17_gbl_zSig,0
0219        label45
0219  1003  	BCF STATUS,C
021A  1683  	BSF STATUS, RP0
021B  0DB6  	RLF mul32To32s_00030_1_zSig0, F
021C  0DB7  	RLF mul32To32s_00030_1_zSig0+D'1', F
021D  0DB8  	RLF mul32To32s_00030_1_zSig0+D'2', F
021E  0DB9  	RLF mul32To32s_00030_1_zSig0+D'3', F
021F  1283  	BCF STATUS, RP0
0220  1FAB  	BTFSS gbl_17_gbl_bSig+D'3',7
0221  2A60  	GOTO	label53
0222  0824  	MOVF gbl_17_gbl_aSig, W
0223  1683  	BSF STATUS, RP0
0224  07B6  	ADDWF mul32To32s_00030_1_zSig0, F
0225  1283  	BCF STATUS, RP0
0226  0825  	MOVF gbl_17_gbl_aSig+D'1', W
0227  1C03  	BTFSS STATUS,C
0228  2A2C  	GOTO	label46
0229  0F25  	INCFSZ gbl_17_gbl_aSig+D'1', W
022A  2A2C  	GOTO	label46
022B  2A2E  	GOTO	label47
022C        label46
022C  1683  	BSF STATUS, RP0
022D  07B7  	ADDWF mul32To32s_00030_1_zSig0+D'1', F
022E        label47
022E  1283  	BCF STATUS, RP0
022F  0826  	MOVF gbl_17_gbl_aSig+D'2', W
0230  1C03  	BTFSS STATUS,C
0231  2A35  	GOTO	label48
0232  0F26  	INCFSZ gbl_17_gbl_aSig+D'2', W
0233  2A35  	GOTO	label48
0234  2A37  	GOTO	label49
0235        label48
0235  1683  	BSF STATUS, RP0
0236  07B8  	ADDWF mul32To32s_00030_1_zSig0+D'2', F
0237        label49
0237  1283  	BCF STATUS, RP0
0238  0827  	MOVF gbl_17_gbl_aSig+D'3', W
0239  1C03  	BTFSS STATUS,C
023A  2A3E  	GOTO	label50
023B  0F27  	INCFSZ gbl_17_gbl_aSig+D'3', W
023C  2A3E  	GOTO	label50
023D  2A40  	GOTO	label51
023E        label50
023E  1683  	BSF STATUS, RP0
023F  07B9  	ADDWF mul32To32s_00030_1_zSig0+D'3', F
0240        label51
0240  1283  	BCF STATUS, RP0
0241  0827  	MOVF gbl_17_gbl_aSig+D'3', W
0242  1683  	BSF STATUS, RP0
0243  0239  	SUBWF mul32To32s_00030_1_zSig0+D'3', W
0244  1D03  	BTFSS STATUS,Z
0245  2A56  	GOTO	label52
0246  1283  	BCF STATUS, RP0
0247  0826  	MOVF gbl_17_gbl_aSig+D'2', W
0248  1683  	BSF STATUS, RP0
0249  0238  	SUBWF mul32To32s_00030_1_zSig0+D'2', W
024A  1D03  	BTFSS STATUS,Z
024B  2A56  	GOTO	label52
024C  1283  	BCF STATUS, RP0
024D  0825  	MOVF gbl_17_gbl_aSig+D'1', W
024E  1683  	BSF STATUS, RP0
024F  0237  	SUBWF mul32To32s_00030_1_zSig0+D'1', W
0250  1D03  	BTFSS STATUS,Z
0251  2A56  	GOTO	label52
0252  1283  	BCF STATUS, RP0
0253  0824  	MOVF gbl_17_gbl_aSig, W
0254  1683  	BSF STATUS, RP0
0255  0236  	SUBWF mul32To32s_00030_1_zSig0, W
0256        label52
0256  1803  	BTFSC STATUS,C
0257  2A60  	GOTO	label53
0258  1283  	BCF STATUS, RP0
0259  0AAC  	INCF gbl_17_gbl_zSig, F
025A  1903  	BTFSC STATUS,Z
025B  0AAD  	INCF gbl_17_gbl_zSig+D'1', F
025C  1903  	BTFSC STATUS,Z
025D  0AAE  	INCF gbl_17_gbl_zSig+D'2', F
025E  1903  	BTFSC STATUS,Z
025F  0AAF  	INCF gbl_17_gbl_zSig+D'3', F
0260        label53
0260  1283  	BCF STATUS, RP0
0261  1BAF  	BTFSC gbl_17_gbl_zSig+D'3',7
0262  2A69  	GOTO	label54
0263  1003  	BCF STATUS,C
0264  0DA8  	RLF gbl_17_gbl_bSig, F
0265  0DA9  	RLF gbl_17_gbl_bSig+D'1', F
0266  0DAA  	RLF gbl_17_gbl_bSig+D'2', F
0267  0DAB  	RLF gbl_17_gbl_bSig+D'3', F
0268  2A07  	GOTO	label44
0269        label54
0269  1283  	BCF STATUS, RP0
026A  01D4  	CLRF gbl_17_gbl_zExp+D'1'
026B  3020  	MOVLW 0x20
026C  1683  	BSF STATUS, RP0
026D  022E  	SUBWF mul32To32s_00030_1_i, W
026E  1283  	BCF STATUS, RP0
026F  00D3  	MOVWF gbl_17_gbl_zExp
0270  1C03  	BTFSS STATUS,C
0271  03D4  	DECF gbl_17_gbl_zExp+D'1', F
0272  1683  	BSF STATUS, RP0
0273  1FAE  	BTFSS mul32To32s_00030_1_i,7
0274  2A77  	GOTO	label55
0275  1283  	BCF STATUS, RP0
0276  03D4  	DECF gbl_17_gbl_zExp+D'1', F
0277        label55
0277  1683  	BSF STATUS, RP0
0278  0836  	MOVF mul32To32s_00030_1_zSig0, W
0279  0437  	IORWF mul32To32s_00030_1_zSig0+D'1', W
027A  0438  	IORWF mul32To32s_00030_1_zSig0+D'2', W
027B  0439  	IORWF mul32To32s_00030_1_zSig0+D'3', W
027C  39FF  	ANDLW 0xFF
027D  1903  	BTFSC STATUS,Z
027E  0008  	RETURN
027F  1283  	BCF STATUS, RP0
0280  142C  	BSF gbl_17_gbl_zSig,0
0281  0008  	RETURN
0282        ; } mul32To32sticky function end

	ORG 0x00000282
0282        _float32_a_0002E
0282        ; { _float32_addSig ; function begin
0282  1283  	BCF STATUS, RP0
0283  1303  	BCF STATUS, RP1
0284  0824  	MOVF gbl_17_gbl_aSig, W
0285  00AC  	MOVWF gbl_17_gbl_zSig
0286  0825  	MOVF gbl_17_gbl_aSig+D'1', W
0287  00AD  	MOVWF gbl_17_gbl_zSig+D'1'
0288  0826  	MOVF gbl_17_gbl_aSig+D'2', W
0289  00AE  	MOVWF gbl_17_gbl_zSig+D'2'
028A  0827  	MOVF gbl_17_gbl_aSig+D'3', W
028B  00AF  	MOVWF gbl_17_gbl_zSig+D'3'
028C  085D  	MOVF gbl_17_gbl_bSign, W
028D  065C  	XORWF gbl_17_gbl_aSign, W
028E  1903  	BTFSC STATUS,Z
028F  2AC3  	GOTO	label62
0290  0828  	MOVF gbl_17_gbl_bSig, W
0291  3C00  	SUBLW 0x00
0292  1683  	BSF STATUS, RP0
0293  00B4  	MOVWF CompTempVar1061
0294  3000  	MOVLW 0x00
0295  00B5  	MOVWF CompTempVar1062
0296  00B6  	MOVWF CompTempVar1063
0297  00B7  	MOVWF CompTempVar1064
0298  1283  	BCF STATUS, RP0
0299  0829  	MOVF gbl_17_gbl_bSig+D'1', W
029A  1803  	BTFSC STATUS,C
029B  2A9F  	GOTO	label56
029C  0F29  	INCFSZ gbl_17_gbl_bSig+D'1', W
029D  2A9F  	GOTO	label56
029E  2AA1  	GOTO	label57
029F        label56
029F  1683  	BSF STATUS, RP0
02A0  02B5  	SUBWF CompTempVar1062, F
02A1        label57
02A1  1283  	BCF STATUS, RP0
02A2  082A  	MOVF gbl_17_gbl_bSig+D'2', W
02A3  1803  	BTFSC STATUS,C
02A4  2AA8  	GOTO	label58
02A5  0F2A  	INCFSZ gbl_17_gbl_bSig+D'2', W
02A6  2AA8  	GOTO	label58
02A7  2AAA  	GOTO	label59
02A8        label58
02A8  1683  	BSF STATUS, RP0
02A9  02B6  	SUBWF CompTempVar1063, F
02AA        label59
02AA  1283  	BCF STATUS, RP0
02AB  082B  	MOVF gbl_17_gbl_bSig+D'3', W
02AC  1803  	BTFSC STATUS,C
02AD  2AB1  	GOTO	label60
02AE  0F2B  	INCFSZ gbl_17_gbl_bSig+D'3', W
02AF  2AB1  	GOTO	label60
02B0  2AB3  	GOTO	label61
02B1        label60
02B1  1683  	BSF STATUS, RP0
02B2  02B7  	SUBWF CompTempVar1064, F
02B3        label61
02B3  1683  	BSF STATUS, RP0
02B4  0834  	MOVF CompTempVar1061, W
02B5  1283  	BCF STATUS, RP0
02B6  00A8  	MOVWF gbl_17_gbl_bSig
02B7  1683  	BSF STATUS, RP0
02B8  0835  	MOVF CompTempVar1062, W
02B9  1283  	BCF STATUS, RP0
02BA  00A9  	MOVWF gbl_17_gbl_bSig+D'1'
02BB  1683  	BSF STATUS, RP0
02BC  0836  	MOVF CompTempVar1063, W
02BD  1283  	BCF STATUS, RP0
02BE  00AA  	MOVWF gbl_17_gbl_bSig+D'2'
02BF  1683  	BSF STATUS, RP0
02C0  0837  	MOVF CompTempVar1064, W
02C1  1283  	BCF STATUS, RP0
02C2  00AB  	MOVWF gbl_17_gbl_bSig+D'3'
02C3        label62
02C3  0828  	MOVF gbl_17_gbl_bSig, W
02C4  07AC  	ADDWF gbl_17_gbl_zSig, F
02C5  0829  	MOVF gbl_17_gbl_bSig+D'1', W
02C6  1803  	BTFSC STATUS,C
02C7  0F29  	INCFSZ gbl_17_gbl_bSig+D'1', W
02C8  07AD  	ADDWF gbl_17_gbl_zSig+D'1', F
02C9  082A  	MOVF gbl_17_gbl_bSig+D'2', W
02CA  1803  	BTFSC STATUS,C
02CB  0F2A  	INCFSZ gbl_17_gbl_bSig+D'2', W
02CC  07AE  	ADDWF gbl_17_gbl_zSig+D'2', F
02CD  082B  	MOVF gbl_17_gbl_bSig+D'3', W
02CE  1803  	BTFSC STATUS,C
02CF  0F2B  	INCFSZ gbl_17_gbl_bSig+D'3', W
02D0  07AF  	ADDWF gbl_17_gbl_zSig+D'3', F
02D1  01DF  	CLRF gbl_17_gbl_zSigZero
02D2  082C  	MOVF gbl_17_gbl_zSig, W
02D3  042D  	IORWF gbl_17_gbl_zSig+D'1', W
02D4  042E  	IORWF gbl_17_gbl_zSig+D'2', W
02D5  042F  	IORWF gbl_17_gbl_zSig+D'3', W
02D6  39FF  	ANDLW 0xFF
02D7  1D03  	BTFSS STATUS,Z
02D8  0008  	RETURN
02D9  3001  	MOVLW 0x01
02DA  00DF  	MOVWF gbl_17_gbl_zSigZero
02DB  0008  	RETURN
02DC        ; } _float32_addSig function end

	ORG 0x000002DC
02DC        __mul_16s__0000D
02DC        ; { __mul_16s_16u__16 ; function begin
02DC  01AB  	CLRF __mul_16s__0000D_1_i
02DD  01AE  	CLRF CompTempVarRet487
02DE  01AF  	CLRF CompTempVarRet487+D'1'
02DF  0827  	MOVF __mul_16s__0000D_arg_a, W
02E0  00AC  	MOVWF __mul_16s__0000D_1_t
02E1  0828  	MOVF __mul_16s__0000D_arg_a+D'1', W
02E2  00AD  	MOVWF __mul_16s__0000D_1_t+D'1'
02E3        label63
02E3  1A2B  	BTFSC __mul_16s__0000D_1_i,4
02E4  0008  	RETURN
02E5  1C29  	BTFSS __mul_16s__0000D_arg_b,0
02E6  2AED  	GOTO	label64
02E7  082C  	MOVF __mul_16s__0000D_1_t, W
02E8  07AE  	ADDWF CompTempVarRet487, F
02E9  082D  	MOVF __mul_16s__0000D_1_t+D'1', W
02EA  1803  	BTFSC gbl_status,0
02EB  0F2D  	INCFSZ __mul_16s__0000D_1_t+D'1', W
02EC  07AF  	ADDWF CompTempVarRet487+D'1', F
02ED        label64
02ED  1003  	BCF gbl_status,0
02EE  0CAA  	RRF __mul_16s__0000D_arg_b+D'1', F
02EF  0CA9  	RRF __mul_16s__0000D_arg_b, F
02F0  1003  	BCF gbl_status,0
02F1  0DAC  	RLF __mul_16s__0000D_1_t, F
02F2  0DAD  	RLF __mul_16s__0000D_1_t+D'1', F
02F3  0AAB  	INCF __mul_16s__0000D_1_i, F
02F4  2AE3  	GOTO	label63
02F5        ; } __mul_16s_16u__16 function end

	ORG 0x000002F5
02F5        Wdt_msDela_00045
02F5        ; { Wdt_msDelay ; function begin
02F5  1283  	BCF STATUS, RP0
02F6  1303  	BCF STATUS, RP1
02F7  01E6  	CLRF Wdt_msDela_00045_1_i
02F8        label65
02F8  304B  	MOVLW 0x4B
02F9  0266  	SUBWF Wdt_msDela_00045_1_i, W
02FA  1803  	BTFSC STATUS,C
02FB  0008  	RETURN
02FC  0064  	CLRWDT
02FD  300A  	MOVLW 0x0A
02FE  00E7  	MOVWF delay_us_00000_arg_del
02FF  2010  	CALL delay_us_00000
0300  0AE6  	INCF Wdt_msDela_00045_1_i, F
0301  2AF8  	GOTO	label65
0302        ; } Wdt_msDelay function end

	ORG 0x00000302
0302        NormaliseF_0001D
0302        ; { NormaliseFloat32NA ; function begin
0302  1283  	BCF STATUS, RP0
0303  1303  	BCF STATUS, RP1
0304  082C  	MOVF gbl_17_gbl_zSig, W
0305  042D  	IORWF gbl_17_gbl_zSig+D'1', W
0306  042E  	IORWF gbl_17_gbl_zSig+D'2', W
0307  042F  	IORWF gbl_17_gbl_zSig+D'3', W
0308  39FF  	ANDLW 0xFF
0309  1903  	BTFSC STATUS,Z
030A  2B17  	GOTO	label67
030B        label66
030B  1B2F  	BTFSC gbl_17_gbl_zSig+D'3',6
030C  0008  	RETURN
030D  1003  	BCF STATUS,C
030E  0DAC  	RLF gbl_17_gbl_zSig, F
030F  0DAD  	RLF gbl_17_gbl_zSig+D'1', F
0310  0DAE  	RLF gbl_17_gbl_zSig+D'2', F
0311  0DAF  	RLF gbl_17_gbl_zSig+D'3', F
0312  08D3  	MOVF gbl_17_gbl_zExp, F
0313  1903  	BTFSC STATUS,Z
0314  03D4  	DECF gbl_17_gbl_zExp+D'1', F
0315  03D3  	DECF gbl_17_gbl_zExp, F
0316  2B0B  	GOTO	label66
0317        label67
0317  01D3  	CLRF gbl_17_gbl_zExp
0318  01D4  	CLRF gbl_17_gbl_zExp+D'1'
0319  0008  	RETURN
031A        ; } NormaliseFloat32NA function end

	ORG 0x0000031A
031A        float32_mul
031A        ; { float32_mul ; function begin
031A  0820  	MOVF float32_mul_arg_a, W
031B  1283  	BCF STATUS, RP0
031C  00A4  	MOVWF gbl_17_gbl_aSig
031D  1683  	BSF STATUS, RP0
031E  0821  	MOVF float32_mul_arg_a+D'1', W
031F  1283  	BCF STATUS, RP0
0320  00A5  	MOVWF gbl_17_gbl_aSig+D'1'
0321  1683  	BSF STATUS, RP0
0322  0822  	MOVF float32_mul_arg_a+D'2', W
0323  1283  	BCF STATUS, RP0
0324  00A6  	MOVWF gbl_17_gbl_aSig+D'2'
0325  13A6  	BCF gbl_17_gbl_aSig+D'2',7
0326  01A7  	CLRF gbl_17_gbl_aSig+D'3'
0327  1683  	BSF STATUS, RP0
0328  0823  	MOVF float32_mul_arg_a+D'3', W
0329  1283  	BCF STATUS, RP0
032A  00DA  	MOVWF gbl_17_gbl_aExp
032B  13DA  	BCF gbl_17_gbl_aExp,7
032C  1003  	BCF STATUS,C
032D  0DDA  	RLF gbl_17_gbl_aExp, F
032E  1683  	BSF STATUS, RP0
032F  1FA2  	BTFSS float32_mul_arg_a+D'2',7
0330  2B33  	GOTO	label68
0331  1283  	BCF STATUS, RP0
0332  145A  	BSF gbl_17_gbl_aExp,0
0333        label68
0333  1683  	BSF STATUS, RP0
0334  0824  	MOVF float32_mul_arg_b, W
0335  1283  	BCF STATUS, RP0
0336  00A8  	MOVWF gbl_17_gbl_bSig
0337  1683  	BSF STATUS, RP0
0338  0825  	MOVF float32_mul_arg_b+D'1', W
0339  1283  	BCF STATUS, RP0
033A  00A9  	MOVWF gbl_17_gbl_bSig+D'1'
033B  1683  	BSF STATUS, RP0
033C  0826  	MOVF float32_mul_arg_b+D'2', W
033D  1283  	BCF STATUS, RP0
033E  00AA  	MOVWF gbl_17_gbl_bSig+D'2'
033F  13AA  	BCF gbl_17_gbl_bSig+D'2',7
0340  01AB  	CLRF gbl_17_gbl_bSig+D'3'
0341  1683  	BSF STATUS, RP0
0342  0827  	MOVF float32_mul_arg_b+D'3', W
0343  1283  	BCF STATUS, RP0
0344  00DB  	MOVWF gbl_17_gbl_bExp
0345  13DB  	BCF gbl_17_gbl_bExp,7
0346  1003  	BCF STATUS,C
0347  0DDB  	RLF gbl_17_gbl_bExp, F
0348  1683  	BSF STATUS, RP0
0349  1FA6  	BTFSS float32_mul_arg_b+D'2',7
034A  2B4D  	GOTO	label69
034B  1283  	BCF STATUS, RP0
034C  145B  	BSF gbl_17_gbl_bExp,0
034D        label69
034D  1283  	BCF STATUS, RP0
034E  01DC  	CLRF gbl_17_gbl_aSign
034F  1683  	BSF STATUS, RP0
0350  1FA3  	BTFSS float32_mul_arg_a+D'3',7
0351  2B55  	GOTO	label70
0352  3001  	MOVLW 0x01
0353  1283  	BCF STATUS, RP0
0354  00DC  	MOVWF gbl_17_gbl_aSign
0355        label70
0355  1283  	BCF STATUS, RP0
0356  01DD  	CLRF gbl_17_gbl_bSign
0357  1683  	BSF STATUS, RP0
0358  1FA7  	BTFSS float32_mul_arg_b+D'3',7
0359  2B5D  	GOTO	label71
035A  3001  	MOVLW 0x01
035B  1283  	BCF STATUS, RP0
035C  00DD  	MOVWF gbl_17_gbl_bSign
035D        label71
035D  1283  	BCF STATUS, RP0
035E  085D  	MOVF gbl_17_gbl_bSign, W
035F  065C  	XORWF gbl_17_gbl_aSign, W
0360  00DE  	MOVWF gbl_17_gbl_zSign
0361  1683  	BSF STATUS, RP0
0362  1028  	BCF float32_mul_1_aNanInf,0
0363  1283  	BCF STATUS, RP0
0364  0A5A  	INCF gbl_17_gbl_aExp, W
0365  1D03  	BTFSS STATUS,Z
0366  2B69  	GOTO	label72
0367  1683  	BSF STATUS, RP0
0368  1428  	BSF float32_mul_1_aNanInf,0
0369        label72
0369  1683  	BSF STATUS, RP0
036A  10A8  	BCF float32_mul_1_bNanInf,1
036B  1283  	BCF STATUS, RP0
036C  0A5B  	INCF gbl_17_gbl_bExp, W
036D  1D03  	BTFSS STATUS,Z
036E  2B71  	GOTO	label73
036F  1683  	BSF STATUS, RP0
0370  14A8  	BSF float32_mul_1_bNanInf,1
0371        label73
0371  1683  	BSF STATUS, RP0
0372  1128  	BCF float32_mul_1_gbl_aSigIsZero,2
0373  1283  	BCF STATUS, RP0
0374  0824  	MOVF gbl_17_gbl_aSig, W
0375  0425  	IORWF gbl_17_gbl_aSig+D'1', W
0376  0426  	IORWF gbl_17_gbl_aSig+D'2', W
0377  0427  	IORWF gbl_17_gbl_aSig+D'3', W
0378  39FF  	ANDLW 0xFF
0379  1D03  	BTFSS STATUS,Z
037A  2B7D  	GOTO	label74
037B  1683  	BSF STATUS, RP0
037C  1528  	BSF float32_mul_1_gbl_aSigIsZero,2
037D        label74
037D  1683  	BSF STATUS, RP0
037E  11A8  	BCF float32_mul_1_gbl_bSigIsZero,3
037F  1283  	BCF STATUS, RP0
0380  0828  	MOVF gbl_17_gbl_bSig, W
0381  0429  	IORWF gbl_17_gbl_bSig+D'1', W
0382  042A  	IORWF gbl_17_gbl_bSig+D'2', W
0383  042B  	IORWF gbl_17_gbl_bSig+D'3', W
0384  39FF  	ANDLW 0xFF
0385  1D03  	BTFSS STATUS,Z
0386  2B89  	GOTO	label75
0387  1683  	BSF STATUS, RP0
0388  15A8  	BSF float32_mul_1_gbl_bSigIsZero,3
0389        label75
0389  1683  	BSF STATUS, RP0
038A  1828  	BTFSC float32_mul_1_aNanInf,0
038B  2B8E  	GOTO	label76
038C  1CA8  	BTFSS float32_mul_1_bNanInf,1
038D  2BDF  	GOTO	label85
038E        label76
038E  1C28  	BTFSS float32_mul_1_aNanInf,0
038F  2B97  	GOTO	label77
0390  1928  	BTFSC float32_mul_1_gbl_aSigIsZero,2
0391  2B97  	GOTO	label77
0392  1B22  	BTFSC float32_mul_arg_a+D'2',6
0393  2B97  	GOTO	label77
0394  1283  	BCF STATUS, RP0
0395  1459  	BSF gbl_float_exception_flags,0
0396  2BD0  	GOTO	label84
0397        label77
0397  1CA8  	BTFSS float32_mul_1_bNanInf,1
0398  2BA0  	GOTO	label78
0399  19A8  	BTFSC float32_mul_1_gbl_bSigIsZero,3
039A  2BA0  	GOTO	label78
039B  1B26  	BTFSC float32_mul_arg_b+D'2',6
039C  2BA0  	GOTO	label78
039D  1283  	BCF STATUS, RP0
039E  1459  	BSF gbl_float_exception_flags,0
039F  2BD0  	GOTO	label84
03A0        label78
03A0  1C28  	BTFSS float32_mul_1_aNanInf,0
03A1  2BA4  	GOTO	label79
03A2  1D28  	BTFSS float32_mul_1_gbl_aSigIsZero,2
03A3  2BD0  	GOTO	label84
03A4        label79
03A4  1CA8  	BTFSS float32_mul_1_bNanInf,1
03A5  2BA8  	GOTO	label80
03A6  1DA8  	BTFSS float32_mul_1_gbl_bSigIsZero,3
03A7  2BD0  	GOTO	label84
03A8        label80
03A8  1DA8  	BTFSS float32_mul_1_gbl_bSigIsZero,3
03A9  2BB0  	GOTO	label81
03AA  1283  	BCF STATUS, RP0
03AB  08DB  	MOVF gbl_17_gbl_bExp, F
03AC  1D03  	BTFSS STATUS,Z
03AD  2BB0  	GOTO	label81
03AE  1459  	BSF gbl_float_exception_flags,0
03AF  2BD0  	GOTO	label84
03B0        label81
03B0  1683  	BSF STATUS, RP0
03B1  1D28  	BTFSS float32_mul_1_gbl_aSigIsZero,2
03B2  2BB9  	GOTO	label82
03B3  1283  	BCF STATUS, RP0
03B4  08DA  	MOVF gbl_17_gbl_aExp, F
03B5  1D03  	BTFSS STATUS,Z
03B6  2BB9  	GOTO	label82
03B7  1459  	BSF gbl_float_exception_flags,0
03B8  2BD0  	GOTO	label84
03B9        label82
03B9  1683  	BSF STATUS, RP0
03BA  01AE  	CLRF float32_mul_50_ret
03BB  01AF  	CLRF float32_mul_50_ret+D'1'
03BC  307F  	MOVLW 0x7F
03BD  00B1  	MOVWF float32_mul_50_ret+D'3'
03BE  3080  	MOVLW 0x80
03BF  00B0  	MOVWF float32_mul_50_ret+D'2'
03C0  1283  	BCF STATUS, RP0
03C1  08DE  	MOVF gbl_17_gbl_zSign, F
03C2  1903  	BTFSC STATUS,Z
03C3  2BC6  	GOTO	label83
03C4  1683  	BSF STATUS, RP0
03C5  17B1  	BSF float32_mul_50_ret+D'3',7
03C6        label83
03C6  1683  	BSF STATUS, RP0
03C7  0831  	MOVF float32_mul_50_ret+D'3', W
03C8  00B5  	MOVWF CompTempVarRet1067+D'3'
03C9  0830  	MOVF float32_mul_50_ret+D'2', W
03CA  00B4  	MOVWF CompTempVarRet1067+D'2'
03CB  082F  	MOVF float32_mul_50_ret+D'1', W
03CC  00B3  	MOVWF CompTempVarRet1067+D'1'
03CD  082E  	MOVF float32_mul_50_ret, W
03CE  00B2  	MOVWF CompTempVarRet1067
03CF  0008  	RETURN
03D0        label84
03D0  1683  	BSF STATUS, RP0
03D1  01AE  	CLRF float32_mul_57__a
03D2  01AF  	CLRF float32_mul_57__a+D'1'
03D3  30C0  	MOVLW 0xC0
03D4  00B0  	MOVWF float32_mul_57__a+D'2'
03D5  30FF  	MOVLW 0xFF
03D6  00B1  	MOVWF float32_mul_57__a+D'3'
03D7  0831  	MOVF float32_mul_57__a+D'3', W
03D8  00B5  	MOVWF CompTempVarRet1067+D'3'
03D9  0830  	MOVF float32_mul_57__a+D'2', W
03DA  00B4  	MOVWF CompTempVarRet1067+D'2'
03DB  3000  	MOVLW 0x00
03DC  00B3  	MOVWF CompTempVarRet1067+D'1'
03DD  00B2  	MOVWF CompTempVarRet1067
03DE  0008  	RETURN
03DF        label85
03DF  307F  	MOVLW 0x7F
03E0  00A9  	MOVWF float32_mul_1_expBias
03E1  1283  	BCF STATUS, RP0
03E2  08DA  	MOVF gbl_17_gbl_aExp, F
03E3  1D03  	BTFSS STATUS,Z
03E4  2C08  	GOTO	label89
03E5  1683  	BSF STATUS, RP0
03E6  1D28  	BTFSS float32_mul_1_gbl_aSigIsZero,2
03E7  2BFC  	GOTO	label87
03E8  01AE  	CLRF float32_mul_61_ret
03E9  01AF  	CLRF float32_mul_61_ret+D'1'
03EA  01B1  	CLRF float32_mul_61_ret+D'3'
03EB  01B0  	CLRF float32_mul_61_ret+D'2'
03EC  1283  	BCF STATUS, RP0
03ED  08DE  	MOVF gbl_17_gbl_zSign, F
03EE  1903  	BTFSC STATUS,Z
03EF  2BF2  	GOTO	label86
03F0  1683  	BSF STATUS, RP0
03F1  17B1  	BSF float32_mul_61_ret+D'3',7
03F2        label86
03F2  1683  	BSF STATUS, RP0
03F3  0831  	MOVF float32_mul_61_ret+D'3', W
03F4  00B5  	MOVWF CompTempVarRet1067+D'3'
03F5  0830  	MOVF float32_mul_61_ret+D'2', W
03F6  00B4  	MOVWF CompTempVarRet1067+D'2'
03F7  082F  	MOVF float32_mul_61_ret+D'1', W
03F8  00B3  	MOVWF CompTempVarRet1067+D'1'
03F9  082E  	MOVF float32_mul_61_ret, W
03FA  00B2  	MOVWF CompTempVarRet1067
03FB  0008  	RETURN
03FC        label87
03FC  03A9  	DECF float32_mul_1_expBias, F
03FD        label88
03FD  1283  	BCF STATUS, RP0
03FE  1BA6  	BTFSC gbl_17_gbl_aSig+D'2',7
03FF  2C09  	GOTO	label90
0400  1003  	BCF STATUS,C
0401  0DA4  	RLF gbl_17_gbl_aSig, F
0402  0DA5  	RLF gbl_17_gbl_aSig+D'1', F
0403  0DA6  	RLF gbl_17_gbl_aSig+D'2', F
0404  0DA7  	RLF gbl_17_gbl_aSig+D'3', F
0405  1683  	BSF STATUS, RP0
0406  0AA9  	INCF float32_mul_1_expBias, F
0407  2BFD  	GOTO	label88
0408        label89
0408  17A6  	BSF gbl_17_gbl_aSig+D'2',7
0409        label90
0409  08DB  	MOVF gbl_17_gbl_bExp, F
040A  1D03  	BTFSS STATUS,Z
040B  2C2F  	GOTO	label94
040C  1683  	BSF STATUS, RP0
040D  1DA8  	BTFSS float32_mul_1_gbl_bSigIsZero,3
040E  2C23  	GOTO	label92
040F  01AE  	CLRF float32_mul_75_ret
0410  01AF  	CLRF float32_mul_75_ret+D'1'
0411  01B1  	CLRF float32_mul_75_ret+D'3'
0412  01B0  	CLRF float32_mul_75_ret+D'2'
0413  1283  	BCF STATUS, RP0
0414  08DE  	MOVF gbl_17_gbl_zSign, F
0415  1903  	BTFSC STATUS,Z
0416  2C19  	GOTO	label91
0417  1683  	BSF STATUS, RP0
0418  17B1  	BSF float32_mul_75_ret+D'3',7
0419        label91
0419  1683  	BSF STATUS, RP0
041A  0831  	MOVF float32_mul_75_ret+D'3', W
041B  00B5  	MOVWF CompTempVarRet1067+D'3'
041C  0830  	MOVF float32_mul_75_ret+D'2', W
041D  00B4  	MOVWF CompTempVarRet1067+D'2'
041E  082F  	MOVF float32_mul_75_ret+D'1', W
041F  00B3  	MOVWF CompTempVarRet1067+D'1'
0420  082E  	MOVF float32_mul_75_ret, W
0421  00B2  	MOVWF CompTempVarRet1067
0422  0008  	RETURN
0423        label92
0423  03A9  	DECF float32_mul_1_expBias, F
0424        label93
0424  1283  	BCF STATUS, RP0
0425  1BAA  	BTFSC gbl_17_gbl_bSig+D'2',7
0426  2C30  	GOTO	label95
0427  1003  	BCF STATUS,C
0428  0DA8  	RLF gbl_17_gbl_bSig, F
0429  0DA9  	RLF gbl_17_gbl_bSig+D'1', F
042A  0DAA  	RLF gbl_17_gbl_bSig+D'2', F
042B  0DAB  	RLF gbl_17_gbl_bSig+D'3', F
042C  1683  	BSF STATUS, RP0
042D  0AA9  	INCF float32_mul_1_expBias, F
042E  2C24  	GOTO	label93
042F        label94
042F  17AA  	BSF gbl_17_gbl_bSig+D'2',7
0430        label95
0430  3007  	MOVLW 0x07
0431  1683  	BSF STATUS, RP0
0432  00AE  	MOVWF float32_mul_88_i
0433        label96
0433  08AE  	MOVF float32_mul_88_i, F
0434  1903  	BTFSC STATUS,Z
0435  2C3F  	GOTO	label97
0436  1003  	BCF STATUS,C
0437  1283  	BCF STATUS, RP0
0438  0DA4  	RLF gbl_17_gbl_aSig, F
0439  0DA5  	RLF gbl_17_gbl_aSig+D'1', F
043A  0DA6  	RLF gbl_17_gbl_aSig+D'2', F
043B  0DA7  	RLF gbl_17_gbl_aSig+D'3', F
043C  1683  	BSF STATUS, RP0
043D  03AE  	DECF float32_mul_88_i, F
043E  2C33  	GOTO	label96
043F        label97
043F  3008  	MOVLW 0x08
0440  00AE  	MOVWF float32_mul_90_i
0441        label98
0441  08AE  	MOVF float32_mul_90_i, F
0442  1903  	BTFSC STATUS,Z
0443  2C4D  	GOTO	label99
0444  1003  	BCF STATUS,C
0445  1283  	BCF STATUS, RP0
0446  0DA8  	RLF gbl_17_gbl_bSig, F
0447  0DA9  	RLF gbl_17_gbl_bSig+D'1', F
0448  0DAA  	RLF gbl_17_gbl_bSig+D'2', F
0449  0DAB  	RLF gbl_17_gbl_bSig+D'3', F
044A  1683  	BSF STATUS, RP0
044B  03AE  	DECF float32_mul_90_i, F
044C  2C41  	GOTO	label98
044D        label99
044D  21FA  	CALL mul32To32s_00030
044E  1283  	BCF STATUS, RP0
044F  08D3  	MOVF gbl_17_gbl_zExp, F
0450  1903  	BTFSC STATUS,Z
0451  08D4  	MOVF gbl_17_gbl_zExp+D'1', F
0452  1903  	BTFSC STATUS,Z
0453  2C8E  	GOTO	label105
0454  0953  	COMF gbl_17_gbl_zExp, W
0455  1683  	BSF STATUS, RP0
0456  00AE  	MOVWF CompTempVar1124
0457  1283  	BCF STATUS, RP0
0458  0954  	COMF gbl_17_gbl_zExp+D'1', W
0459  1683  	BSF STATUS, RP0
045A  00AF  	MOVWF CompTempVar1125
045B  0AAE  	INCF CompTempVar1124, F
045C  1903  	BTFSC STATUS,Z
045D  0AAF  	INCF CompTempVar1125, F
045E  3020  	MOVLW 0x20
045F  022E  	SUBWF CompTempVar1124, W
0460  082F  	MOVF CompTempVar1125, W
0461  1803  	BTFSC STATUS,C
0462  2C65  	GOTO	label100
0463  1903  	BTFSC STATUS,Z
0464  2C67  	GOTO	label101
0465        label100
0465  1FAF  	BTFSS CompTempVar1125,7
0466  2C81  	GOTO	label104
0467        label101
0467  1228  	BCF float32_mul_96_stickyBit,4
0468  1283  	BCF STATUS, RP0
0469  0953  	COMF gbl_17_gbl_zExp, W
046A  1683  	BSF STATUS, RP0
046B  00B0  	MOVWF float32_mul_96_count
046C  0AB0  	INCF float32_mul_96_count, F
046D        label102
046D  1283  	BCF STATUS, RP0
046E  1C2C  	BTFSS gbl_17_gbl_zSig,0
046F  2C72  	GOTO	label103
0470  1683  	BSF STATUS, RP0
0471  1628  	BSF float32_mul_96_stickyBit,4
0472        label103
0472  1003  	BCF STATUS,C
0473  1283  	BCF STATUS, RP0
0474  0CAF  	RRF gbl_17_gbl_zSig+D'3', F
0475  0CAE  	RRF gbl_17_gbl_zSig+D'2', F
0476  0CAD  	RRF gbl_17_gbl_zSig+D'1', F
0477  0CAC  	RRF gbl_17_gbl_zSig, F
0478  1683  	BSF STATUS, RP0
0479  03B0  	DECF float32_mul_96_count, F
047A  1D03  	BTFSS STATUS,Z
047B  2C6D  	GOTO	label102
047C  1E28  	BTFSS float32_mul_96_stickyBit,4
047D  2C8E  	GOTO	label105
047E  1283  	BCF STATUS, RP0
047F  142C  	BSF gbl_17_gbl_zSig,0
0480  2C8E  	GOTO	label105
0481        label104
0481  1283  	BCF STATUS, RP0
0482  082C  	MOVF gbl_17_gbl_zSig, W
0483  042D  	IORWF gbl_17_gbl_zSig+D'1', W
0484  042E  	IORWF gbl_17_gbl_zSig+D'2', W
0485  042F  	IORWF gbl_17_gbl_zSig+D'3', W
0486  39FF  	ANDLW 0xFF
0487  1903  	BTFSC STATUS,Z
0488  2C8E  	GOTO	label105
0489  3001  	MOVLW 0x01
048A  00AC  	MOVWF gbl_17_gbl_zSig
048B  01AD  	CLRF gbl_17_gbl_zSig+D'1'
048C  01AE  	CLRF gbl_17_gbl_zSig+D'2'
048D  01AF  	CLRF gbl_17_gbl_zSig+D'3'
048E        label105
048E  1283  	BCF STATUS, RP0
048F  085A  	MOVF gbl_17_gbl_aExp, W
0490  00D3  	MOVWF gbl_17_gbl_zExp
0491  01D4  	CLRF gbl_17_gbl_zExp+D'1'
0492  085B  	MOVF gbl_17_gbl_bExp, W
0493  07D3  	ADDWF gbl_17_gbl_zExp, F
0494  1803  	BTFSC STATUS,C
0495  0AD4  	INCF gbl_17_gbl_zExp+D'1', F
0496  1683  	BSF STATUS, RP0
0497  0829  	MOVF float32_mul_1_expBias, W
0498  1283  	BCF STATUS, RP0
0499  02D3  	SUBWF gbl_17_gbl_zExp, F
049A  1C03  	BTFSS STATUS,C
049B  03D4  	DECF gbl_17_gbl_zExp+D'1', F
049C  1B2F  	BTFSC gbl_17_gbl_zSig+D'3',6
049D  2CA7  	GOTO	label106
049E  1003  	BCF STATUS,C
049F  0DAC  	RLF gbl_17_gbl_zSig, F
04A0  0DAD  	RLF gbl_17_gbl_zSig+D'1', F
04A1  0DAE  	RLF gbl_17_gbl_zSig+D'2', F
04A2  0DAF  	RLF gbl_17_gbl_zSig+D'3', F
04A3  08D3  	MOVF gbl_17_gbl_zExp, F
04A4  1903  	BTFSC STATUS,Z
04A5  03D4  	DECF gbl_17_gbl_zExp+D'1', F
04A6  03D3  	DECF gbl_17_gbl_zExp, F
04A7        label106
04A7  2081  	CALL roundFloat_0001E
04A8  21E1  	CALL packFloat3_00021
04A9  082C  	MOVF gbl_17_gbl_zSig, W
04AA  1683  	BSF STATUS, RP0
04AB  00AA  	MOVWF float32_mul_1_retxxx
04AC  1283  	BCF STATUS, RP0
04AD  082D  	MOVF gbl_17_gbl_zSig+D'1', W
04AE  1683  	BSF STATUS, RP0
04AF  00AB  	MOVWF float32_mul_1_retxxx+D'1'
04B0  1283  	BCF STATUS, RP0
04B1  082E  	MOVF gbl_17_gbl_zSig+D'2', W
04B2  1683  	BSF STATUS, RP0
04B3  00AC  	MOVWF float32_mul_1_retxxx+D'2'
04B4  1283  	BCF STATUS, RP0
04B5  082F  	MOVF gbl_17_gbl_zSig+D'3', W
04B6  1683  	BSF STATUS, RP0
04B7  00AD  	MOVWF float32_mul_1_retxxx+D'3'
04B8  082D  	MOVF float32_mul_1_retxxx+D'3', W
04B9  00B5  	MOVWF CompTempVarRet1067+D'3'
04BA  082C  	MOVF float32_mul_1_retxxx+D'2', W
04BB  00B4  	MOVWF CompTempVarRet1067+D'2'
04BC  082B  	MOVF float32_mul_1_retxxx+D'1', W
04BD  00B3  	MOVWF CompTempVarRet1067+D'1'
04BE  082A  	MOVF float32_mul_1_retxxx, W
04BF  00B2  	MOVWF CompTempVarRet1067
04C0  0008  	RETURN
04C1        ; } float32_mul function end

	ORG 0x000004C1
04C1        float32_from_int32
04C1        ; { float32_from_int32 ; function begin
04C1  0820  	MOVF float32_from_int32_arg_a, W
04C2  1283  	BCF STATUS, RP0
04C3  00AC  	MOVWF gbl_17_gbl_zSig
04C4  1683  	BSF STATUS, RP0
04C5  0821  	MOVF float32_from_int32_arg_a+D'1', W
04C6  1283  	BCF STATUS, RP0
04C7  00AD  	MOVWF gbl_17_gbl_zSig+D'1'
04C8  1683  	BSF STATUS, RP0
04C9  0822  	MOVF float32_from_int32_arg_a+D'2', W
04CA  1283  	BCF STATUS, RP0
04CB  00AE  	MOVWF gbl_17_gbl_zSig+D'2'
04CC  1683  	BSF STATUS, RP0
04CD  0823  	MOVF float32_from_int32_arg_a+D'3', W
04CE  1283  	BCF STATUS, RP0
04CF  00AF  	MOVWF gbl_17_gbl_zSig+D'3'
04D0  082C  	MOVF gbl_17_gbl_zSig, W
04D1  3C00  	SUBLW 0x00
04D2  1D03  	BTFSS STATUS,Z
04D3  2CE6  	GOTO	label107
04D4  082D  	MOVF gbl_17_gbl_zSig+D'1', W
04D5  3C00  	SUBLW 0x00
04D6  1D03  	BTFSS STATUS,Z
04D7  2CE6  	GOTO	label107
04D8  082E  	MOVF gbl_17_gbl_zSig+D'2', W
04D9  3C00  	SUBLW 0x00
04DA  1D03  	BTFSS STATUS,Z
04DB  2CE6  	GOTO	label107
04DC  082F  	MOVF gbl_17_gbl_zSig+D'3', W
04DD  3C80  	SUBLW 0x80
04DE  1D03  	BTFSS STATUS,Z
04DF  2CE6  	GOTO	label107
04E0  3001  	MOVLW 0x01
04E1  00DE  	MOVWF gbl_17_gbl_zSign
04E2  309E  	MOVLW 0x9E
04E3  00D3  	MOVWF gbl_17_gbl_zExp
04E4  01D4  	CLRF gbl_17_gbl_zExp+D'1'
04E5  2D23  	GOTO	label115
04E6        label107
04E6  01DE  	CLRF gbl_17_gbl_zSign
04E7  1FAF  	BTFSS gbl_17_gbl_zSig+D'3',7
04E8  2D1E  	GOTO	label114
04E9  3001  	MOVLW 0x01
04EA  00DE  	MOVWF gbl_17_gbl_zSign
04EB  082C  	MOVF gbl_17_gbl_zSig, W
04EC  3C00  	SUBLW 0x00
04ED  1683  	BSF STATUS, RP0
04EE  00A8  	MOVWF CompTempVar815
04EF  3000  	MOVLW 0x00
04F0  00A9  	MOVWF CompTempVar816
04F1  00AA  	MOVWF CompTempVar817
04F2  00AB  	MOVWF CompTempVar818
04F3  1283  	BCF STATUS, RP0
04F4  082D  	MOVF gbl_17_gbl_zSig+D'1', W
04F5  1803  	BTFSC STATUS,C
04F6  2CFA  	GOTO	label108
04F7  0F2D  	INCFSZ gbl_17_gbl_zSig+D'1', W
04F8  2CFA  	GOTO	label108
04F9  2CFC  	GOTO	label109
04FA        label108
04FA  1683  	BSF STATUS, RP0
04FB  02A9  	SUBWF CompTempVar816, F
04FC        label109
04FC  1283  	BCF STATUS, RP0
04FD  082E  	MOVF gbl_17_gbl_zSig+D'2', W
04FE  1803  	BTFSC STATUS,C
04FF  2D03  	GOTO	label110
0500  0F2E  	INCFSZ gbl_17_gbl_zSig+D'2', W
0501  2D03  	GOTO	label110
0502  2D05  	GOTO	label111
0503        label110
0503  1683  	BSF STATUS, RP0
0504  02AA  	SUBWF CompTempVar817, F
0505        label111
0505  1283  	BCF STATUS, RP0
0506  082F  	MOVF gbl_17_gbl_zSig+D'3', W
0507  1803  	BTFSC STATUS,C
0508  2D0C  	GOTO	label112
0509  0F2F  	INCFSZ gbl_17_gbl_zSig+D'3', W
050A  2D0C  	GOTO	label112
050B  2D0E  	GOTO	label113
050C        label112
050C  1683  	BSF STATUS, RP0
050D  02AB  	SUBWF CompTempVar818, F
050E        label113
050E  1683  	BSF STATUS, RP0
050F  0828  	MOVF CompTempVar815, W
0510  1283  	BCF STATUS, RP0
0511  00AC  	MOVWF gbl_17_gbl_zSig
0512  1683  	BSF STATUS, RP0
0513  0829  	MOVF CompTempVar816, W
0514  1283  	BCF STATUS, RP0
0515  00AD  	MOVWF gbl_17_gbl_zSig+D'1'
0516  1683  	BSF STATUS, RP0
0517  082A  	MOVF CompTempVar817, W
0518  1283  	BCF STATUS, RP0
0519  00AE  	MOVWF gbl_17_gbl_zSig+D'2'
051A  1683  	BSF STATUS, RP0
051B  082B  	MOVF CompTempVar818, W
051C  1283  	BCF STATUS, RP0
051D  00AF  	MOVWF gbl_17_gbl_zSig+D'3'
051E        label114
051E  309C  	MOVLW 0x9C
051F  00D3  	MOVWF gbl_17_gbl_zExp
0520  01D4  	CLRF gbl_17_gbl_zExp+D'1'
0521  2302  	CALL NormaliseF_0001D
0522  2081  	CALL roundFloat_0001E
0523        label115
0523  21E1  	CALL packFloat3_00021
0524  082C  	MOVF gbl_17_gbl_zSig, W
0525  1683  	BSF STATUS, RP0
0526  00A4  	MOVWF float32_from_int32_1_retxxx
0527  1283  	BCF STATUS, RP0
0528  082D  	MOVF gbl_17_gbl_zSig+D'1', W
0529  1683  	BSF STATUS, RP0
052A  00A5  	MOVWF float32_from_int32_1_retxxx+D'1'
052B  1283  	BCF STATUS, RP0
052C  082E  	MOVF gbl_17_gbl_zSig+D'2', W
052D  1683  	BSF STATUS, RP0
052E  00A6  	MOVWF float32_from_int32_1_retxxx+D'2'
052F  1283  	BCF STATUS, RP0
0530  082F  	MOVF gbl_17_gbl_zSig+D'3', W
0531  1683  	BSF STATUS, RP0
0532  00A7  	MOVWF float32_from_int32_1_retxxx+D'3'
0533  0827  	MOVF float32_from_int32_1_retxxx+D'3', W
0534  00AB  	MOVWF CompTempVarRet813+D'3'
0535  0826  	MOVF float32_from_int32_1_retxxx+D'2', W
0536  00AA  	MOVWF CompTempVarRet813+D'2'
0537  0825  	MOVF float32_from_int32_1_retxxx+D'1', W
0538  00A9  	MOVWF CompTempVarRet813+D'1'
0539  0824  	MOVF float32_from_int32_1_retxxx, W
053A  00A8  	MOVWF CompTempVarRet813
053B  0008  	RETURN
053C        ; } float32_from_int32 function end

	ORG 0x0000053C
053C        float32_addsub
053C        ; { float32_addsub ; function begin
053C  08A8  	MOVF float32_addsub_arg_subtract, F
053D  1903  	BTFSC STATUS,Z
053E  2D41  	GOTO	label116
053F  3080  	MOVLW 0x80
0540  06A7  	XORWF float32_addsub_arg_b+D'3', F
0541        label116
0541  0823  	MOVF float32_addsub_arg_a+D'3', W
0542  1283  	BCF STATUS, RP0
0543  00DA  	MOVWF gbl_17_gbl_aExp
0544  13DA  	BCF gbl_17_gbl_aExp,7
0545  1003  	BCF STATUS,C
0546  0DDA  	RLF gbl_17_gbl_aExp, F
0547  1683  	BSF STATUS, RP0
0548  1FA2  	BTFSS float32_addsub_arg_a+D'2',7
0549  2D4C  	GOTO	label117
054A  1283  	BCF STATUS, RP0
054B  145A  	BSF gbl_17_gbl_aExp,0
054C        label117
054C  1283  	BCF STATUS, RP0
054D  01DC  	CLRF gbl_17_gbl_aSign
054E  1683  	BSF STATUS, RP0
054F  1FA3  	BTFSS float32_addsub_arg_a+D'3',7
0550  2D54  	GOTO	label118
0551  3001  	MOVLW 0x01
0552  1283  	BCF STATUS, RP0
0553  00DC  	MOVWF gbl_17_gbl_aSign
0554        label118
0554  1683  	BSF STATUS, RP0
0555  0820  	MOVF float32_addsub_arg_a, W
0556  1283  	BCF STATUS, RP0
0557  00A4  	MOVWF gbl_17_gbl_aSig
0558  1683  	BSF STATUS, RP0
0559  0821  	MOVF float32_addsub_arg_a+D'1', W
055A  1283  	BCF STATUS, RP0
055B  00A5  	MOVWF gbl_17_gbl_aSig+D'1'
055C  1683  	BSF STATUS, RP0
055D  0822  	MOVF float32_addsub_arg_a+D'2', W
055E  1283  	BCF STATUS, RP0
055F  00A6  	MOVWF gbl_17_gbl_aSig+D'2'
0560  13A6  	BCF gbl_17_gbl_aSig+D'2',7
0561  01A7  	CLRF gbl_17_gbl_aSig+D'3'
0562  1683  	BSF STATUS, RP0
0563  0827  	MOVF float32_addsub_arg_b+D'3', W
0564  1283  	BCF STATUS, RP0
0565  00DB  	MOVWF gbl_17_gbl_bExp
0566  13DB  	BCF gbl_17_gbl_bExp,7
0567  1003  	BCF STATUS,C
0568  0DDB  	RLF gbl_17_gbl_bExp, F
0569  1683  	BSF STATUS, RP0
056A  1FA6  	BTFSS float32_addsub_arg_b+D'2',7
056B  2D6E  	GOTO	label119
056C  1283  	BCF STATUS, RP0
056D  145B  	BSF gbl_17_gbl_bExp,0
056E        label119
056E  1283  	BCF STATUS, RP0
056F  01DD  	CLRF gbl_17_gbl_bSign
0570  1683  	BSF STATUS, RP0
0571  1FA7  	BTFSS float32_addsub_arg_b+D'3',7
0572  2D76  	GOTO	label120
0573  3001  	MOVLW 0x01
0574  1283  	BCF STATUS, RP0
0575  00DD  	MOVWF gbl_17_gbl_bSign
0576        label120
0576  1683  	BSF STATUS, RP0
0577  0824  	MOVF float32_addsub_arg_b, W
0578  1283  	BCF STATUS, RP0
0579  00A8  	MOVWF gbl_17_gbl_bSig
057A  1683  	BSF STATUS, RP0
057B  0825  	MOVF float32_addsub_arg_b+D'1', W
057C  1283  	BCF STATUS, RP0
057D  00A9  	MOVWF gbl_17_gbl_bSig+D'1'
057E  1683  	BSF STATUS, RP0
057F  0826  	MOVF float32_addsub_arg_b+D'2', W
0580  1283  	BCF STATUS, RP0
0581  00AA  	MOVWF gbl_17_gbl_bSig+D'2'
0582  13AA  	BCF gbl_17_gbl_bSig+D'2',7
0583  01AB  	CLRF gbl_17_gbl_bSig+D'3'
0584  3006  	MOVLW 0x06
0585  1683  	BSF STATUS, RP0
0586  00B0  	MOVWF float32_addsub_31_i
0587        label121
0587  08B0  	MOVF float32_addsub_31_i, F
0588  1903  	BTFSC STATUS,Z
0589  2D93  	GOTO	label122
058A  1003  	BCF STATUS,C
058B  1283  	BCF STATUS, RP0
058C  0DA4  	RLF gbl_17_gbl_aSig, F
058D  0DA5  	RLF gbl_17_gbl_aSig+D'1', F
058E  0DA6  	RLF gbl_17_gbl_aSig+D'2', F
058F  0DA7  	RLF gbl_17_gbl_aSig+D'3', F
0590  1683  	BSF STATUS, RP0
0591  03B0  	DECF float32_addsub_31_i, F
0592  2D87  	GOTO	label121
0593        label122
0593  3006  	MOVLW 0x06
0594  00B0  	MOVWF float32_addsub_33_i
0595        label123
0595  08B0  	MOVF float32_addsub_33_i, F
0596  1903  	BTFSC STATUS,Z
0597  2DA1  	GOTO	label124
0598  1003  	BCF STATUS,C
0599  1283  	BCF STATUS, RP0
059A  0DA8  	RLF gbl_17_gbl_bSig, F
059B  0DA9  	RLF gbl_17_gbl_bSig+D'1', F
059C  0DAA  	RLF gbl_17_gbl_bSig+D'2', F
059D  0DAB  	RLF gbl_17_gbl_bSig+D'3', F
059E  1683  	BSF STATUS, RP0
059F  03B0  	DECF float32_addsub_33_i, F
05A0  2D95  	GOTO	label123
05A1        label124
05A1  1029  	BCF float32_addsub_1_aNanInf,0
05A2  1283  	BCF STATUS, RP0
05A3  0A5A  	INCF gbl_17_gbl_aExp, W
05A4  1D03  	BTFSS STATUS,Z
05A5  2DA8  	GOTO	label125
05A6  1683  	BSF STATUS, RP0
05A7  1429  	BSF float32_addsub_1_aNanInf,0
05A8        label125
05A8  1683  	BSF STATUS, RP0
05A9  10A9  	BCF float32_addsub_1_bNanInf,1
05AA  1283  	BCF STATUS, RP0
05AB  0A5B  	INCF gbl_17_gbl_bExp, W
05AC  1D03  	BTFSS STATUS,Z
05AD  2DB0  	GOTO	label126
05AE  1683  	BSF STATUS, RP0
05AF  14A9  	BSF float32_addsub_1_bNanInf,1
05B0        label126
05B0  1683  	BSF STATUS, RP0
05B1  1129  	BCF float32_addsub_1_aSigIsZero,2
05B2  1283  	BCF STATUS, RP0
05B3  0824  	MOVF gbl_17_gbl_aSig, W
05B4  0425  	IORWF gbl_17_gbl_aSig+D'1', W
05B5  0426  	IORWF gbl_17_gbl_aSig+D'2', W
05B6  0427  	IORWF gbl_17_gbl_aSig+D'3', W
05B7  39FF  	ANDLW 0xFF
05B8  1D03  	BTFSS STATUS,Z
05B9  2DBC  	GOTO	label127
05BA  1683  	BSF STATUS, RP0
05BB  1529  	BSF float32_addsub_1_aSigIsZero,2
05BC        label127
05BC  1683  	BSF STATUS, RP0
05BD  11A9  	BCF float32_addsub_1_bSigIsZero,3
05BE  1283  	BCF STATUS, RP0
05BF  0828  	MOVF gbl_17_gbl_bSig, W
05C0  0429  	IORWF gbl_17_gbl_bSig+D'1', W
05C1  042A  	IORWF gbl_17_gbl_bSig+D'2', W
05C2  042B  	IORWF gbl_17_gbl_bSig+D'3', W
05C3  39FF  	ANDLW 0xFF
05C4  1D03  	BTFSS STATUS,Z
05C5  2DC8  	GOTO	label128
05C6  1683  	BSF STATUS, RP0
05C7  15A9  	BSF float32_addsub_1_bSigIsZero,3
05C8        label128
05C8  1683  	BSF STATUS, RP0
05C9  1829  	BTFSC float32_addsub_1_aNanInf,0
05CA  2DCD  	GOTO	label129
05CB  1CA9  	BTFSS float32_addsub_1_bNanInf,1
05CC  2E36  	GOTO	label142
05CD        label129
05CD  1629  	BSF float32_addsub_39_bSignalingNaN,4
05CE  1F26  	BTFSS float32_addsub_arg_b+D'2',6
05CF  2DD1  	GOTO	label130
05D0  1229  	BCF float32_addsub_39_bSignalingNaN,4
05D1        label130
05D1  16A9  	BSF float32_addsub_39_aSignalingNaN,5
05D2  1B22  	BTFSC float32_addsub_arg_a+D'2',6
05D3  12A9  	BCF float32_addsub_39_aSignalingNaN,5
05D4  1C29  	BTFSS float32_addsub_1_aNanInf,0
05D5  2DF8  	GOTO	label133
05D6  1CA9  	BTFSS float32_addsub_1_bNanInf,1
05D7  2DF8  	GOTO	label133
05D8  1D29  	BTFSS float32_addsub_1_aSigIsZero,2
05D9  2DE6  	GOTO	label131
05DA  1DA9  	BTFSS float32_addsub_1_bSigIsZero,3
05DB  2DE6  	GOTO	label131
05DC  1283  	BCF STATUS, RP0
05DD  085D  	MOVF gbl_17_gbl_bSign, W
05DE  065C  	XORWF gbl_17_gbl_aSign, W
05DF  1903  	BTFSC STATUS,Z
05E0  2E21  	GOTO	label139
05E1  1459  	BSF gbl_float_exception_flags,0
05E2  08DC  	MOVF gbl_17_gbl_aSign, F
05E3  1D03  	BTFSS STATUS,Z
05E4  2E1F  	GOTO	label138
05E5  2E2B  	GOTO	label140
05E6        label131
05E6  1D29  	BTFSS float32_addsub_1_aSigIsZero,2
05E7  2DEF  	GOTO	label132
05E8  19A9  	BTFSC float32_addsub_1_bSigIsZero,3
05E9  2DEF  	GOTO	label132
05EA  1E29  	BTFSS float32_addsub_39_bSignalingNaN,4
05EB  2E2B  	GOTO	label140
05EC  1283  	BCF STATUS, RP0
05ED  1459  	BSF gbl_float_exception_flags,0
05EE  2E2B  	GOTO	label140
05EF        label132
05EF  1929  	BTFSC float32_addsub_1_aSigIsZero,2
05F0  2DF8  	GOTO	label133
05F1  1DA9  	BTFSS float32_addsub_1_bSigIsZero,3
05F2  2DF8  	GOTO	label133
05F3  1EA9  	BTFSS float32_addsub_39_aSignalingNaN,5
05F4  2E1F  	GOTO	label138
05F5  1283  	BCF STATUS, RP0
05F6  1459  	BSF gbl_float_exception_flags,0
05F7  2E1F  	GOTO	label138
05F8        label133
05F8  1C29  	BTFSS float32_addsub_1_aNanInf,0
05F9  2DFE  	GOTO	label134
05FA  1D29  	BTFSS float32_addsub_1_aSigIsZero,2
05FB  2DFE  	GOTO	label134
05FC  1CA9  	BTFSS float32_addsub_1_bNanInf,1
05FD  2E21  	GOTO	label139
05FE        label134
05FE  1CA9  	BTFSS float32_addsub_1_bNanInf,1
05FF  2E04  	GOTO	label135
0600  1DA9  	BTFSS float32_addsub_1_bSigIsZero,3
0601  2E04  	GOTO	label135
0602  1C29  	BTFSS float32_addsub_1_aNanInf,0
0603  2E2D  	GOTO	label141
0604        label135
0604  1C29  	BTFSS float32_addsub_1_aNanInf,0
0605  2E16  	GOTO	label137
0606  1929  	BTFSC float32_addsub_1_aSigIsZero,2
0607  2E16  	GOTO	label137
0608  1EA9  	BTFSS float32_addsub_39_aSignalingNaN,5
0609  2E0C  	GOTO	label136
060A  1283  	BCF STATUS, RP0
060B  1459  	BSF gbl_float_exception_flags,0
060C        label136
060C  1683  	BSF STATUS, RP0
060D  1CA9  	BTFSS float32_addsub_1_bNanInf,1
060E  2E1F  	GOTO	label138
060F  19A9  	BTFSC float32_addsub_1_bSigIsZero,3
0610  2E1F  	GOTO	label138
0611  1E29  	BTFSS float32_addsub_39_bSignalingNaN,4
0612  2E1F  	GOTO	label138
0613  1283  	BCF STATUS, RP0
0614  1459  	BSF gbl_float_exception_flags,0
0615  2E1F  	GOTO	label138
0616        label137
0616  1CA9  	BTFSS float32_addsub_1_bNanInf,1
0617  2E1F  	GOTO	label138
0618  19A9  	BTFSC float32_addsub_1_bSigIsZero,3
0619  2E1F  	GOTO	label138
061A  1E29  	BTFSS float32_addsub_39_bSignalingNaN,4
061B  2E2B  	GOTO	label140
061C  1283  	BCF STATUS, RP0
061D  1459  	BSF gbl_float_exception_flags,0
061E  2E2B  	GOTO	label140
061F        label138
061F  1683  	BSF STATUS, RP0
0620  1722  	BSF float32_addsub_arg_a+D'2',6
0621        label139
0621  1683  	BSF STATUS, RP0
0622  0823  	MOVF float32_addsub_arg_a+D'3', W
0623  00B3  	MOVWF CompTempVarRet1019+D'3'
0624  0822  	MOVF float32_addsub_arg_a+D'2', W
0625  00B2  	MOVWF CompTempVarRet1019+D'2'
0626  0821  	MOVF float32_addsub_arg_a+D'1', W
0627  00B1  	MOVWF CompTempVarRet1019+D'1'
0628  0820  	MOVF float32_addsub_arg_a, W
0629  00B0  	MOVWF CompTempVarRet1019
062A  0008  	RETURN
062B        label140
062B  1683  	BSF STATUS, RP0
062C  1726  	BSF float32_addsub_arg_b+D'2',6
062D        label141
062D  0827  	MOVF float32_addsub_arg_b+D'3', W
062E  00B3  	MOVWF CompTempVarRet1019+D'3'
062F  0826  	MOVF float32_addsub_arg_b+D'2', W
0630  00B2  	MOVWF CompTempVarRet1019+D'2'
0631  0825  	MOVF float32_addsub_arg_b+D'1', W
0632  00B1  	MOVWF CompTempVarRet1019+D'1'
0633  0824  	MOVF float32_addsub_arg_b, W
0634  00B0  	MOVWF CompTempVarRet1019
0635  0008  	RETURN
0636        label142
0636  1283  	BCF STATUS, RP0
0637  085A  	MOVF gbl_17_gbl_aExp, W
0638  1683  	BSF STATUS, RP0
0639  00AA  	MOVWF float32_addsub_1_expDiff
063A  01AB  	CLRF float32_addsub_1_expDiff+D'1'
063B  1283  	BCF STATUS, RP0
063C  085B  	MOVF gbl_17_gbl_bExp, W
063D  1683  	BSF STATUS, RP0
063E  00B4  	MOVWF CompTempVar1051
063F  01B5  	CLRF CompTempVar1051+D'1'
0640  0834  	MOVF CompTempVar1051, W
0641  02AA  	SUBWF float32_addsub_1_expDiff, F
0642  0A35  	INCF CompTempVar1051+D'1', W
0643  1803  	BTFSC STATUS,C
0644  0835  	MOVF CompTempVar1051+D'1', W
0645  02AB  	SUBWF float32_addsub_1_expDiff+D'1', F
0646  1283  	BCF STATUS, RP0
0647  085B  	MOVF gbl_17_gbl_bExp, W
0648  025A  	SUBWF gbl_17_gbl_aExp, W
0649  1C03  	BTFSS STATUS,C
064A  2E5F  	GOTO	label144
064B  085A  	MOVF gbl_17_gbl_aExp, W
064C  065B  	XORWF gbl_17_gbl_bExp, W
064D  1D03  	BTFSS STATUS,Z
064E  2E8A  	GOTO	label145
064F  082B  	MOVF gbl_17_gbl_bSig+D'3', W
0650  0227  	SUBWF gbl_17_gbl_aSig+D'3', W
0651  1D03  	BTFSS STATUS,Z
0652  2E5D  	GOTO	label143
0653  082A  	MOVF gbl_17_gbl_bSig+D'2', W
0654  0226  	SUBWF gbl_17_gbl_aSig+D'2', W
0655  1D03  	BTFSS STATUS,Z
0656  2E5D  	GOTO	label143
0657  0829  	MOVF gbl_17_gbl_bSig+D'1', W
0658  0225  	SUBWF gbl_17_gbl_aSig+D'1', W
0659  1D03  	BTFSS STATUS,Z
065A  2E5D  	GOTO	label143
065B  0828  	MOVF gbl_17_gbl_bSig, W
065C  0224  	SUBWF gbl_17_gbl_aSig, W
065D        label143
065D  1803  	BTFSC STATUS,C
065E  2E8A  	GOTO	label145
065F        label144
065F  0827  	MOVF gbl_17_gbl_aSig+D'3', W
0660  00AF  	MOVWF gbl_17_gbl_zSig+D'3'
0661  0826  	MOVF gbl_17_gbl_aSig+D'2', W
0662  00AE  	MOVWF gbl_17_gbl_zSig+D'2'
0663  0825  	MOVF gbl_17_gbl_aSig+D'1', W
0664  00AD  	MOVWF gbl_17_gbl_zSig+D'1'
0665  0824  	MOVF gbl_17_gbl_aSig, W
0666  00AC  	MOVWF gbl_17_gbl_zSig
0667  085A  	MOVF gbl_17_gbl_aExp, W
0668  00D3  	MOVWF gbl_17_gbl_zExp
0669  01D4  	CLRF gbl_17_gbl_zExp+D'1'
066A  085C  	MOVF gbl_17_gbl_aSign, W
066B  00DE  	MOVWF gbl_17_gbl_zSign
066C  082B  	MOVF gbl_17_gbl_bSig+D'3', W
066D  00A7  	MOVWF gbl_17_gbl_aSig+D'3'
066E  082A  	MOVF gbl_17_gbl_bSig+D'2', W
066F  00A6  	MOVWF gbl_17_gbl_aSig+D'2'
0670  0829  	MOVF gbl_17_gbl_bSig+D'1', W
0671  00A5  	MOVWF gbl_17_gbl_aSig+D'1'
0672  0828  	MOVF gbl_17_gbl_bSig, W
0673  00A4  	MOVWF gbl_17_gbl_aSig
0674  082F  	MOVF gbl_17_gbl_zSig+D'3', W
0675  00AB  	MOVWF gbl_17_gbl_bSig+D'3'
0676  082E  	MOVF gbl_17_gbl_zSig+D'2', W
0677  00AA  	MOVWF gbl_17_gbl_bSig+D'2'
0678  082D  	MOVF gbl_17_gbl_zSig+D'1', W
0679  00A9  	MOVWF gbl_17_gbl_bSig+D'1'
067A  082C  	MOVF gbl_17_gbl_zSig, W
067B  00A8  	MOVWF gbl_17_gbl_bSig
067C  085B  	MOVF gbl_17_gbl_bExp, W
067D  00DA  	MOVWF gbl_17_gbl_aExp
067E  0853  	MOVF gbl_17_gbl_zExp, W
067F  00DB  	MOVWF gbl_17_gbl_bExp
0680  085D  	MOVF gbl_17_gbl_bSign, W
0681  00DC  	MOVWF gbl_17_gbl_aSign
0682  085E  	MOVF gbl_17_gbl_zSign, W
0683  00DD  	MOVWF gbl_17_gbl_bSign
0684  1683  	BSF STATUS, RP0
0685  09AA  	COMF float32_addsub_1_expDiff, F
0686  09AB  	COMF float32_addsub_1_expDiff+D'1', F
0687  0AAA  	INCF float32_addsub_1_expDiff, F
0688  1903  	BTFSC STATUS,Z
0689  0AAB  	INCF float32_addsub_1_expDiff+D'1', F
068A        label145
068A  1283  	BCF STATUS, RP0
068B  08DA  	MOVF gbl_17_gbl_aExp, F
068C  1D03  	BTFSS STATUS,Z
068D  2EB6  	GOTO	label151
068E  08DB  	MOVF gbl_17_gbl_bExp, F
068F  1D03  	BTFSS STATUS,Z
0690  2EB6  	GOTO	label151
0691  2282  	CALL _float32_a_0002E
0692  08DF  	MOVF gbl_17_gbl_zSigZero, F
0693  1903  	BTFSC STATUS,Z
0694  2EA1  	GOTO	label147
0695  085D  	MOVF gbl_17_gbl_bSign, W
0696  065C  	XORWF gbl_17_gbl_aSign, W
0697  1903  	BTFSC STATUS,Z
0698  2EA1  	GOTO	label147
0699  0358  	DECF gbl_float_rounding_mode, W
069A  1D03  	BTFSS STATUS,Z
069B  2E9F  	GOTO	label146
069C  3001  	MOVLW 0x01
069D  00DE  	MOVWF gbl_17_gbl_zSign
069E  2EA3  	GOTO	label148
069F        label146
069F  01DE  	CLRF gbl_17_gbl_zSign
06A0  2EA3  	GOTO	label148
06A1        label147
06A1  085C  	MOVF gbl_17_gbl_aSign, W
06A2  00DE  	MOVWF gbl_17_gbl_zSign
06A3        label148
06A3  3006  	MOVLW 0x06
06A4  1683  	BSF STATUS, RP0
06A5  00B4  	MOVWF float32_addsub_86_i
06A6        label149
06A6  08B4  	MOVF float32_addsub_86_i, F
06A7  1903  	BTFSC STATUS,Z
06A8  2EB2  	GOTO	label150
06A9  1003  	BCF STATUS,C
06AA  1283  	BCF STATUS, RP0
06AB  0CAF  	RRF gbl_17_gbl_zSig+D'3', F
06AC  0CAE  	RRF gbl_17_gbl_zSig+D'2', F
06AD  0CAD  	RRF gbl_17_gbl_zSig+D'1', F
06AE  0CAC  	RRF gbl_17_gbl_zSig, F
06AF  1683  	BSF STATUS, RP0
06B0  03B4  	DECF float32_addsub_86_i, F
06B1  2EA6  	GOTO	label149
06B2        label150
06B2  1283  	BCF STATUS, RP0
06B3  01D3  	CLRF gbl_17_gbl_zExp
06B4  01D4  	CLRF gbl_17_gbl_zExp+D'1'
06B5  2EF0  	GOTO	label161
06B6        label151
06B6  08DB  	MOVF gbl_17_gbl_bExp, F
06B7  1D03  	BTFSS STATUS,Z
06B8  2EC0  	GOTO	label153
06B9  1683  	BSF STATUS, RP0
06BA  08AA  	MOVF float32_addsub_1_expDiff, F
06BB  1D03  	BTFSS STATUS,Z
06BC  2EBE  	GOTO	label152
06BD  03AB  	DECF float32_addsub_1_expDiff+D'1', F
06BE        label152
06BE  03AA  	DECF float32_addsub_1_expDiff, F
06BF  2EC1  	GOTO	label154
06C0        label153
06C0  16AB  	BSF gbl_17_gbl_bSig+D'3',5
06C1        label154
06C1  1283  	BCF STATUS, RP0
06C2  08DA  	MOVF gbl_17_gbl_aExp, F
06C3  1D03  	BTFSS STATUS,Z
06C4  2ECB  	GOTO	label155
06C5  1683  	BSF STATUS, RP0
06C6  0AAA  	INCF float32_addsub_1_expDiff, F
06C7  1D03  	BTFSS STATUS,Z
06C8  2ECC  	GOTO	label156
06C9  0AAB  	INCF float32_addsub_1_expDiff+D'1', F
06CA  2ECC  	GOTO	label156
06CB        label155
06CB  16A7  	BSF gbl_17_gbl_aSig+D'3',5
06CC        label156
06CC  1683  	BSF STATUS, RP0
06CD  082A  	MOVF float32_addsub_1_expDiff, W
06CE  00B4  	MOVWF shift32Rig_0002F_arg_shiftCount
06CF  082B  	MOVF float32_addsub_1_expDiff+D'1', W
06D0  00B5  	MOVWF shift32Rig_0002F_arg_shiftCount+D'1'
06D1  204F  	CALL shift32Rig_0002F
06D2  2282  	CALL _float32_a_0002E
06D3  08DF  	MOVF gbl_17_gbl_zSigZero, F
06D4  1903  	BTFSC STATUS,Z
06D5  2EDE  	GOTO	label158
06D6  0358  	DECF gbl_float_rounding_mode, W
06D7  1D03  	BTFSS STATUS,Z
06D8  2EDC  	GOTO	label157
06D9  3001  	MOVLW 0x01
06DA  00DE  	MOVWF gbl_17_gbl_zSign
06DB  2EE0  	GOTO	label159
06DC        label157
06DC  01DE  	CLRF gbl_17_gbl_zSign
06DD  2EE0  	GOTO	label159
06DE        label158
06DE  085C  	MOVF gbl_17_gbl_aSign, W
06DF  00DE  	MOVWF gbl_17_gbl_zSign
06E0        label159
06E0  085A  	MOVF gbl_17_gbl_aExp, W
06E1  00D3  	MOVWF gbl_17_gbl_zExp
06E2  01D4  	CLRF gbl_17_gbl_zExp+D'1'
06E3  1B2F  	BTFSC gbl_17_gbl_zSig+D'3',6
06E4  2EEE  	GOTO	label160
06E5  1003  	BCF STATUS,C
06E6  0DAC  	RLF gbl_17_gbl_zSig, F
06E7  0DAD  	RLF gbl_17_gbl_zSig+D'1', F
06E8  0DAE  	RLF gbl_17_gbl_zSig+D'2', F
06E9  0DAF  	RLF gbl_17_gbl_zSig+D'3', F
06EA  08D3  	MOVF gbl_17_gbl_zExp, F
06EB  1903  	BTFSC STATUS,Z
06EC  03D4  	DECF gbl_17_gbl_zExp+D'1', F
06ED  03D3  	DECF gbl_17_gbl_zExp, F
06EE        label160
06EE  2302  	CALL NormaliseF_0001D
06EF  2081  	CALL roundFloat_0001E
06F0        label161
06F0  21E1  	CALL packFloat3_00021
06F1  082C  	MOVF gbl_17_gbl_zSig, W
06F2  1683  	BSF STATUS, RP0
06F3  00AC  	MOVWF float32_addsub_1_retxxx
06F4  1283  	BCF STATUS, RP0
06F5  082D  	MOVF gbl_17_gbl_zSig+D'1', W
06F6  1683  	BSF STATUS, RP0
06F7  00AD  	MOVWF float32_addsub_1_retxxx+D'1'
06F8  1283  	BCF STATUS, RP0
06F9  082E  	MOVF gbl_17_gbl_zSig+D'2', W
06FA  1683  	BSF STATUS, RP0
06FB  00AE  	MOVWF float32_addsub_1_retxxx+D'2'
06FC  1283  	BCF STATUS, RP0
06FD  082F  	MOVF gbl_17_gbl_zSig+D'3', W
06FE  1683  	BSF STATUS, RP0
06FF  00AF  	MOVWF float32_addsub_1_retxxx+D'3'
0700  082F  	MOVF float32_addsub_1_retxxx+D'3', W
0701  00B3  	MOVWF CompTempVarRet1019+D'3'
0702  082E  	MOVF float32_addsub_1_retxxx+D'2', W
0703  00B2  	MOVWF CompTempVarRet1019+D'2'
0704  082D  	MOVF float32_addsub_1_retxxx+D'1', W
0705  00B1  	MOVWF CompTempVarRet1019+D'1'
0706  082C  	MOVF float32_addsub_1_retxxx, W
0707  00B0  	MOVWF CompTempVarRet1019
0708  0008  	RETURN
0709        ; } float32_addsub function end

	ORG 0x00000709
0709        __div_16_1_00003
0709        ; { __div_16_16 ; function begin
0709  01AF  	CLRF __div_16_1_00003_1_r
070A  01B0  	CLRF __div_16_1_00003_1_r+D'1'
070B  01B2  	CLRF CompTempVarRet243
070C  01B3  	CLRF CompTempVarRet243+D'1'
070D  01B1  	CLRF __div_16_1_00003_1_i
070E        label162
070E  1A31  	BTFSC __div_16_1_00003_1_i,4
070F  0008  	RETURN
0710  1003  	BCF STATUS,C
0711  0DB2  	RLF CompTempVarRet243, F
0712  0DB3  	RLF CompTempVarRet243+D'1', F
0713  0DA9  	RLF __div_16_1_00003_arg_a, F
0714  0DAA  	RLF __div_16_1_00003_arg_a+D'1', F
0715  0DAF  	RLF __div_16_1_00003_1_r, F
0716  0DB0  	RLF __div_16_1_00003_1_r+D'1', F
0717  082C  	MOVF __div_16_1_00003_arg_b+D'1', W
0718  0230  	SUBWF __div_16_1_00003_1_r+D'1', W
0719  1D03  	BTFSS STATUS,Z
071A  2F1D  	GOTO	label163
071B  082B  	MOVF __div_16_1_00003_arg_b, W
071C  022F  	SUBWF __div_16_1_00003_1_r, W
071D        label163
071D  1C03  	BTFSS STATUS,C
071E  2F26  	GOTO	label164
071F  082B  	MOVF __div_16_1_00003_arg_b, W
0720  02AF  	SUBWF __div_16_1_00003_1_r, F
0721  082C  	MOVF __div_16_1_00003_arg_b+D'1', W
0722  1C03  	BTFSS STATUS,C
0723  03B0  	DECF __div_16_1_00003_1_r+D'1', F
0724  02B0  	SUBWF __div_16_1_00003_1_r+D'1', F
0725  1432  	BSF CompTempVarRet243,0
0726        label164
0726  0AB1  	INCF __div_16_1_00003_1_i, F
0727  2F0E  	GOTO	label162
0728        ; } __div_16_16 function end

	ORG 0x00000728
0728        Wdt_Delay__00047
0728        ; { Wdt_Delay_Ms ; function begin
0728  01E4  	CLRF Wdt_Delay__00047_1_i
0729  01E5  	CLRF Wdt_Delay__00047_1_i+D'1'
072A        label165
072A  0865  	MOVF Wdt_Delay__00047_1_i+D'1', W
072B  3A80  	XORLW 0x80
072C  00E6  	MOVWF CompTempVar2178
072D  0863  	MOVF Wdt_Delay__00047_arg_delay+D'1', W
072E  3A80  	XORLW 0x80
072F  0266  	SUBWF CompTempVar2178, W
0730  1D03  	BTFSS STATUS,Z
0731  2F34  	GOTO	label166
0732  0862  	MOVF Wdt_Delay__00047_arg_delay, W
0733  0264  	SUBWF Wdt_Delay__00047_1_i, W
0734        label166
0734  1803  	BTFSC STATUS,C
0735  0008  	RETURN
0736  22F5  	CALL Wdt_msDela_00045
0737  0AE4  	INCF Wdt_Delay__00047_1_i, F
0738  1903  	BTFSC STATUS,Z
0739  0AE5  	INCF Wdt_Delay__00047_1_i+D'1', F
073A  2F2A  	GOTO	label165
073B        ; } Wdt_Delay_Ms function end

	ORG 0x0000073B
073B        FCI_STRING_00043
073B        ; { FCI_STRING_TO_INT ; function begin
073B  01A3  	CLRF FCI_STRING_00043_1_bNegative
073C  01A4  	CLRF FCI_STRING_00043_1_idx
073D  01A5  	CLRF FCI_STRING_00043_1_RetVal
073E  01A6  	CLRF FCI_STRING_00043_1_RetVal+D'1'
073F  1383  	BCF STATUS,IRP
0740  1821  	BTFSC FCI_STRING_00043_arg_String+D'1',0
0741  1783  	BSF STATUS,IRP
0742  0820  	MOVF FCI_STRING_00043_arg_String, W
0743  0084  	MOVWF FSR
0744  3000  	MOVLW 0x00
0745  0784  	ADDWF FSR, F
0746  0800  	MOVF INDF, W
0747  3A2D  	XORLW 0x2D
0748  1D03  	BTFSS STATUS,Z
0749  2F4D  	GOTO	label167
074A  3001  	MOVLW 0x01
074B  00A3  	MOVWF FCI_STRING_00043_1_bNegative
074C  00A4  	MOVWF FCI_STRING_00043_1_idx
074D        label167
074D  0822  	MOVF FCI_STRING_00043_arg_MSZ_String, W
074E  0224  	SUBWF FCI_STRING_00043_1_idx, W
074F  1803  	BTFSC STATUS,C
0750  2F80  	GOTO	label168
0751  1383  	BCF STATUS,IRP
0752  1821  	BTFSC FCI_STRING_00043_arg_String+D'1',0
0753  1783  	BSF STATUS,IRP
0754  0820  	MOVF FCI_STRING_00043_arg_String, W
0755  0724  	ADDWF FCI_STRING_00043_1_idx, W
0756  0084  	MOVWF FSR
0757  3030  	MOVLW 0x30
0758  0200  	SUBWF INDF, W
0759  1C03  	BTFSS STATUS,C
075A  2F80  	GOTO	label168
075B  1383  	BCF STATUS,IRP
075C  1821  	BTFSC FCI_STRING_00043_arg_String+D'1',0
075D  1783  	BSF STATUS,IRP
075E  0820  	MOVF FCI_STRING_00043_arg_String, W
075F  0724  	ADDWF FCI_STRING_00043_1_idx, W
0760  0084  	MOVWF FSR
0761  0800  	MOVF INDF, W
0762  3C39  	SUBLW 0x39
0763  1C03  	BTFSS STATUS,C
0764  2F80  	GOTO	label168
0765  0825  	MOVF FCI_STRING_00043_1_RetVal, W
0766  00A7  	MOVWF __mul_16s__0000D_arg_a
0767  0826  	MOVF FCI_STRING_00043_1_RetVal+D'1', W
0768  00A8  	MOVWF __mul_16s__0000D_arg_a+D'1'
0769  300A  	MOVLW 0x0A
076A  00A9  	MOVWF __mul_16s__0000D_arg_b
076B  01AA  	CLRF __mul_16s__0000D_arg_b+D'1'
076C  22DC  	CALL __mul_16s__0000D
076D  082E  	MOVF CompTempVarRet487, W
076E  00A5  	MOVWF FCI_STRING_00043_1_RetVal
076F  082F  	MOVF CompTempVarRet487+D'1', W
0770  00A6  	MOVWF FCI_STRING_00043_1_RetVal+D'1'
0771  1383  	BCF STATUS,IRP
0772  1821  	BTFSC FCI_STRING_00043_arg_String+D'1',0
0773  1783  	BSF STATUS,IRP
0774  0820  	MOVF FCI_STRING_00043_arg_String, W
0775  0724  	ADDWF FCI_STRING_00043_1_idx, W
0776  0084  	MOVWF FSR
0777  3030  	MOVLW 0x30
0778  0200  	SUBWF INDF, W
0779  07A5  	ADDWF FCI_STRING_00043_1_RetVal, F
077A  08A6  	MOVF FCI_STRING_00043_1_RetVal+D'1', F
077B  1803  	BTFSC STATUS,C
077C  0AA6  	INCF FCI_STRING_00043_1_RetVal+D'1', F
077D  0A24  	INCF FCI_STRING_00043_1_idx, W
077E  00A4  	MOVWF FCI_STRING_00043_1_idx
077F  2F4D  	GOTO	label167
0780        label168
0780  08A3  	MOVF FCI_STRING_00043_1_bNegative, F
0781  1903  	BTFSC STATUS,Z
0782  2F8B  	GOTO	label169
0783  0825  	MOVF FCI_STRING_00043_1_RetVal, W
0784  3C00  	SUBLW 0x00
0785  00A7  	MOVWF CompTempVar2159
0786  09A6  	COMF FCI_STRING_00043_1_RetVal+D'1', F
0787  1803  	BTFSC STATUS,C
0788  0AA6  	INCF FCI_STRING_00043_1_RetVal+D'1', F
0789  0827  	MOVF CompTempVar2159, W
078A  00A5  	MOVWF FCI_STRING_00043_1_RetVal
078B        label169
078B  0825  	MOVF FCI_STRING_00043_1_RetVal, W
078C  00A7  	MOVWF CompTempVarRet2146
078D  0826  	MOVF FCI_STRING_00043_1_RetVal+D'1', W
078E  00A8  	MOVWF CompTempVarRet2146+D'1'
078F  0008  	RETURN
0790        ; } FCI_STRING_TO_INT function end

	ORG 0x00000790
0790        FCD_RS2320_00064
0790        ; { FCD_RS2320_ReceiveRS232Char ; function begin
0790  01EA  	CLRF FCD_RS2320_00064_1_delay1
0791  01EB  	CLRF FCD_RS2320_00064_1_delay2
0792  01EC  	CLRF FCD_RS2320_00064_1_regcheck
0793  01ED  	CLRF FCD_RS2320_00064_1_dummy
0794  01EE  	CLRF FCD_RS2320_00064_1_retVal
0795  3002  	MOVLW 0x02
0796  00EF  	MOVWF FCD_RS2320_00064_1_retVal+D'1'
0797  01F0  	CLRF FCD_RS2320_00064_1_bWaitForever
0798  01F1  	CLRF FCD_RS2320_00064_1_rxStatus
0799  3008  	MOVLW 0x08
079A  00F2  	MOVWF FCD_RS2320_00064_1_count
079B  30FF  	MOVLW 0xFF
079C  00EE  	MOVWF FCD_RS2320_00064_1_retVal
079D  01EF  	CLRF FCD_RS2320_00064_1_retVal+D'1'
079E  30FF  	MOVLW 0xFF
079F  0668  	XORWF FCD_RS2320_00064_arg_nTimeout, W
07A0  1903  	BTFSC STATUS,Z
07A1  0869  	MOVF FCD_RS2320_00064_arg_nTimeout+D'1', W
07A2  1D03  	BTFSS STATUS,Z
07A3  2FA6  	GOTO	label170
07A4  3001  	MOVLW 0x01
07A5  00F0  	MOVWF FCD_RS2320_00064_1_bWaitForever
07A6        label170
07A6  1618  	BSF gbl_rcsta,4
07A7        label171
07A7  08F1  	MOVF FCD_RS2320_00064_1_rxStatus, F
07A8  1D03  	BTFSS STATUS,Z
07A9  2FC9  	GOTO	label174
07AA  08F0  	MOVF FCD_RS2320_00064_1_bWaitForever, F
07AB  1D03  	BTFSS STATUS,Z
07AC  2FC0  	GOTO	label173
07AD  08E8  	MOVF FCD_RS2320_00064_arg_nTimeout, F
07AE  1D03  	BTFSS STATUS,Z
07AF  2FB6  	GOTO	label172
07B0  08E9  	MOVF FCD_RS2320_00064_arg_nTimeout+D'1', F
07B1  1D03  	BTFSS STATUS,Z
07B2  2FB6  	GOTO	label172
07B3  3001  	MOVLW 0x01
07B4  00F1  	MOVWF FCD_RS2320_00064_1_rxStatus
07B5  2FC0  	GOTO	label173
07B6        label172
07B6  036A  	DECF FCD_RS2320_00064_1_delay1, W
07B7  00EA  	MOVWF FCD_RS2320_00064_1_delay1
07B8  08EA  	MOVF FCD_RS2320_00064_1_delay1, F
07B9  1D03  	BTFSS STATUS,Z
07BA  2FC0  	GOTO	label173
07BB  3001  	MOVLW 0x01
07BC  02E8  	SUBWF FCD_RS2320_00064_arg_nTimeout, F
07BD  08E9  	MOVF FCD_RS2320_00064_arg_nTimeout+D'1', F
07BE  1C03  	BTFSS STATUS,C
07BF  03E9  	DECF FCD_RS2320_00064_arg_nTimeout+D'1', F
07C0        label173
07C0  3020  	MOVLW 0x20
07C1  050C  	ANDWF gbl_pir1, W
07C2  00EC  	MOVWF FCD_RS2320_00064_1_regcheck
07C3  08EC  	MOVF FCD_RS2320_00064_1_regcheck, F
07C4  1903  	BTFSC STATUS,Z
07C5  2FA7  	GOTO	label171
07C6  3002  	MOVLW 0x02
07C7  00F1  	MOVWF FCD_RS2320_00064_1_rxStatus
07C8  2FA7  	GOTO	label171
07C9        label174
07C9  0871  	MOVF FCD_RS2320_00064_1_rxStatus, W
07CA  3A02  	XORLW 0x02
07CB  1D03  	BTFSS STATUS,Z
07CC  2FE4  	GOTO	label177
07CD  3004  	MOVLW 0x04
07CE  0518  	ANDWF gbl_rcsta, W
07CF  00EC  	MOVWF FCD_RS2320_00064_1_regcheck
07D0  08EC  	MOVF FCD_RS2320_00064_1_regcheck, F
07D1  1903  	BTFSC STATUS,Z
07D2  2FD6  	GOTO	label175
07D3  081A  	MOVF gbl_rcreg, W
07D4  00ED  	MOVWF FCD_RS2320_00064_1_dummy
07D5  2FE4  	GOTO	label177
07D6        label175
07D6  3002  	MOVLW 0x02
07D7  0518  	ANDWF gbl_rcsta, W
07D8  00EC  	MOVWF FCD_RS2320_00064_1_regcheck
07D9  08EC  	MOVF FCD_RS2320_00064_1_regcheck, F
07DA  1903  	BTFSC STATUS,Z
07DB  2FDF  	GOTO	label176
07DC  1218  	BCF gbl_rcsta,4
07DD  1618  	BSF gbl_rcsta,4
07DE  2FE4  	GOTO	label177
07DF        label176
07DF  01EE  	CLRF FCD_RS2320_00064_1_retVal
07E0  01EF  	CLRF FCD_RS2320_00064_1_retVal+D'1'
07E1  081A  	MOVF gbl_rcreg, W
07E2  04EE  	IORWF FCD_RS2320_00064_1_retVal, F
07E3  08EF  	MOVF FCD_RS2320_00064_1_retVal+D'1', F
07E4        label177
07E4  086E  	MOVF FCD_RS2320_00064_1_retVal, W
07E5  00F3  	MOVWF CompTempVarRet2276
07E6  086F  	MOVF FCD_RS2320_00064_1_retVal+D'1', W
07E7  00F4  	MOVWF CompTempVarRet2276+D'1'
07E8  0008  	RETURN
07E9        ; } FCD_RS2320_ReceiveRS232Char function end

	ORG 0x000007E9
07E9        FCD_LCDDis_0004D
07E9        ; { FCD_LCDDisplay0_RawSend ; function begin
07E9  1283  	BCF STATUS, RP0
07EA  1303  	BCF STATUS, RP1
07EB  1006  	BCF gbl_portb,0
07EC  1086  	BCF gbl_portb,1
07ED  1106  	BCF gbl_portb,2
07EE  1186  	BCF gbl_portb,3
07EF  1206  	BCF gbl_portb,4
07F0  1286  	BCF gbl_portb,5
07F1  0E73  	SWAPF FCD_LCDDis_0004D_arg_in, W
07F2  390F  	ANDLW 0x0F
07F3  00F5  	MOVWF FCD_LCDDis_0004D_1_pt
07F4  300F  	MOVLW 0x0F
07F5  05F5  	ANDWF FCD_LCDDis_0004D_1_pt, F
07F6  1875  	BTFSC FCD_LCDDis_0004D_1_pt,0
07F7  1406  	BSF gbl_portb,0
07F8  18F5  	BTFSC FCD_LCDDis_0004D_1_pt,1
07F9  1486  	BSF gbl_portb,1
07FA  1975  	BTFSC FCD_LCDDis_0004D_1_pt,2
07FB  1506  	BSF gbl_portb,2
07FC  19F5  	BTFSC FCD_LCDDis_0004D_1_pt,3
07FD  1586  	BSF gbl_portb,3
07FE  08F4  	MOVF FCD_LCDDis_0004D_arg_mask, F
07FF  1D03  	BTFSS STATUS,Z
0800  1606  	BSF gbl_portb,4
0801  300A  	MOVLW 0x0A
0802  00F6  	MOVWF delay_10us_00000_arg_del
0803  201A  	CALL delay_10us_00000
0804  1686  	BSF gbl_portb,5
0805  300A  	MOVLW 0x0A
0806  00F6  	MOVWF delay_10us_00000_arg_del
0807  201A  	CALL delay_10us_00000
0808  1286  	BCF gbl_portb,5
0809  300F  	MOVLW 0x0F
080A  0573  	ANDWF FCD_LCDDis_0004D_arg_in, W
080B  00F5  	MOVWF FCD_LCDDis_0004D_1_pt
080C  300A  	MOVLW 0x0A
080D  00F6  	MOVWF delay_10us_00000_arg_del
080E  201A  	CALL delay_10us_00000
080F  1006  	BCF gbl_portb,0
0810  1086  	BCF gbl_portb,1
0811  1106  	BCF gbl_portb,2
0812  1186  	BCF gbl_portb,3
0813  1206  	BCF gbl_portb,4
0814  1286  	BCF gbl_portb,5
0815  1875  	BTFSC FCD_LCDDis_0004D_1_pt,0
0816  1406  	BSF gbl_portb,0
0817  18F5  	BTFSC FCD_LCDDis_0004D_1_pt,1
0818  1486  	BSF gbl_portb,1
0819  1975  	BTFSC FCD_LCDDis_0004D_1_pt,2
081A  1506  	BSF gbl_portb,2
081B  19F5  	BTFSC FCD_LCDDis_0004D_1_pt,3
081C  1586  	BSF gbl_portb,3
081D  08F4  	MOVF FCD_LCDDis_0004D_arg_mask, F
081E  1D03  	BTFSS STATUS,Z
081F  1606  	BSF gbl_portb,4
0820  300A  	MOVLW 0x0A
0821  00F6  	MOVWF delay_10us_00000_arg_del
0822  201A  	CALL delay_10us_00000
0823  1686  	BSF gbl_portb,5
0824  300A  	MOVLW 0x0A
0825  00F6  	MOVWF delay_10us_00000_arg_del
0826  201A  	CALL delay_10us_00000
0827  1286  	BCF gbl_portb,5
0828  300A  	MOVLW 0x0A
0829  00F6  	MOVWF delay_10us_00000_arg_del
082A  201A  	CALL delay_10us_00000
082B  0008  	RETURN
082C        ; } FCD_LCDDisplay0_RawSend function end

	ORG 0x0000082C
082C        FCD_ADC1_S_0005C
082C        ; { FCD_ADC1_SampleADC ; function begin
082C  3005  	MOVLW 0x05
082D  1683  	BSF STATUS, RP0
082E  1303  	BCF STATUS, RP1
082F  009F  	MOVWF gbl_adcon1
0830  0805  	MOVF gbl_trisa, W
0831  00F0  	MOVWF FCD_ADC1_S_0005C_1_old_tris
0832  3002  	MOVLW 0x02
0833  0405  	IORWF gbl_trisa, W
0834  0085  	MOVWF gbl_trisa
0835  30C9  	MOVLW 0xC9
0836  1283  	BCF STATUS, RP0
0837  009F  	MOVWF gbl_adcon0
0838  01F1  	CLRF FCD_ADC1_S_0005C_1_cnt
0839        label178
0839  3028  	MOVLW 0x28
083A  0271  	SUBWF FCD_ADC1_S_0005C_1_cnt, W
083B  1803  	BTFSC STATUS,C
083C  283F  	GOTO	label179
083D  0AF1  	INCF FCD_ADC1_S_0005C_1_cnt, F
083E  2839  	GOTO	label178
083F        label179
083F  3004  	MOVLW 0x04
0840  041F  	IORWF gbl_adcon0, W
0841  009F  	MOVWF gbl_adcon0
0842        label180
0842  191F  	BTFSC gbl_adcon0,2
0843  2842  	GOTO	label180
0844  0870  	MOVF FCD_ADC1_S_0005C_1_old_tris, W
0845  1683  	BSF STATUS, RP0
0846  0085  	MOVWF gbl_trisa
0847  3007  	MOVLW 0x07
0848  009F  	MOVWF gbl_adcon1
0849  1283  	BCF STATUS, RP0
084A  019F  	CLRF gbl_adcon0
084B  0008  	RETURN
084C        ; } FCD_ADC1_SampleADC function end

	ORG 0x0000084C
084C        FCD_ADC0_S_00056
084C        ; { FCD_ADC0_SampleADC ; function begin
084C  3005  	MOVLW 0x05
084D  1683  	BSF STATUS, RP0
084E  1303  	BCF STATUS, RP1
084F  009F  	MOVWF gbl_adcon1
0850  0805  	MOVF gbl_trisa, W
0851  00F0  	MOVWF FCD_ADC0_S_00056_1_old_tris
0852  3001  	MOVLW 0x01
0853  0405  	IORWF gbl_trisa, W
0854  0085  	MOVWF gbl_trisa
0855  30C1  	MOVLW 0xC1
0856  1283  	BCF STATUS, RP0
0857  009F  	MOVWF gbl_adcon0
0858  01F1  	CLRF FCD_ADC0_S_00056_1_cnt
0859        label181
0859  3028  	MOVLW 0x28
085A  0271  	SUBWF FCD_ADC0_S_00056_1_cnt, W
085B  1803  	BTFSC STATUS,C
085C  285F  	GOTO	label182
085D  0AF1  	INCF FCD_ADC0_S_00056_1_cnt, F
085E  2859  	GOTO	label181
085F        label182
085F  3004  	MOVLW 0x04
0860  041F  	IORWF gbl_adcon0, W
0861  009F  	MOVWF gbl_adcon0
0862        label183
0862  191F  	BTFSC gbl_adcon0,2
0863  2862  	GOTO	label183
0864  0870  	MOVF FCD_ADC0_S_00056_1_old_tris, W
0865  1683  	BSF STATUS, RP0
0866  0085  	MOVWF gbl_trisa
0867  3007  	MOVLW 0x07
0868  009F  	MOVWF gbl_adcon1
0869  1283  	BCF STATUS, RP0
086A  019F  	CLRF gbl_adcon0
086B  0008  	RETURN
086C        ; } FCD_ADC0_SampleADC function end

	ORG 0x0000086C
086C        float32_to_int32
086C        ; { float32_to_int32 ; function begin
086C  0820  	MOVF float32_to_int32_arg_a, W
086D  1283  	BCF STATUS, RP0
086E  00A4  	MOVWF gbl_17_gbl_aSig
086F  1683  	BSF STATUS, RP0
0870  0821  	MOVF float32_to_int32_arg_a+D'1', W
0871  1283  	BCF STATUS, RP0
0872  00A5  	MOVWF gbl_17_gbl_aSig+D'1'
0873  1683  	BSF STATUS, RP0
0874  0822  	MOVF float32_to_int32_arg_a+D'2', W
0875  1283  	BCF STATUS, RP0
0876  00A6  	MOVWF gbl_17_gbl_aSig+D'2'
0877  13A6  	BCF gbl_17_gbl_aSig+D'2',7
0878  01A7  	CLRF gbl_17_gbl_aSig+D'3'
0879  1683  	BSF STATUS, RP0
087A  0823  	MOVF float32_to_int32_arg_a+D'3', W
087B  1283  	BCF STATUS, RP0
087C  00DA  	MOVWF gbl_17_gbl_aExp
087D  13DA  	BCF gbl_17_gbl_aExp,7
087E  1003  	BCF STATUS,C
087F  0DDA  	RLF gbl_17_gbl_aExp, F
0880  1683  	BSF STATUS, RP0
0881  1FA2  	BTFSS float32_to_int32_arg_a+D'2',7
0882  2885  	GOTO	label184
0883  1283  	BCF STATUS, RP0
0884  145A  	BSF gbl_17_gbl_aExp,0
0885        label184
0885  1283  	BCF STATUS, RP0
0886  01DC  	CLRF gbl_17_gbl_aSign
0887  1683  	BSF STATUS, RP0
0888  1FA3  	BTFSS float32_to_int32_arg_a+D'3',7
0889  288D  	GOTO	label185
088A  3001  	MOVLW 0x01
088B  1283  	BCF STATUS, RP0
088C  00DC  	MOVWF gbl_17_gbl_aSign
088D        label185
088D  1683  	BSF STATUS, RP0
088E  01A5  	CLRF float32_to_int32_1_shiftCount+D'1'
088F  3096  	MOVLW 0x96
0890  1283  	BCF STATUS, RP0
0891  025A  	SUBWF gbl_17_gbl_aExp, W
0892  1683  	BSF STATUS, RP0
0893  00A4  	MOVWF float32_to_int32_1_shiftCount
0894  1C03  	BTFSS STATUS,C
0895  03A5  	DECF float32_to_int32_1_shiftCount+D'1', F
0896  3080  	MOVLW 0x80
0897  1283  	BCF STATUS, RP0
0898  025A  	SUBWF gbl_17_gbl_aExp, W
0899  1683  	BSF STATUS, RP0
089A  00A6  	MOVWF float32_to_int32_1_absExp_1
089B  0826  	MOVF float32_to_int32_1_absExp_1, W
089C  3C15  	SUBLW 0x15
089D  1803  	BTFSC STATUS,C
089E  2934  	GOTO	label199
089F  1BA6  	BTFSC float32_to_int32_1_absExp_1,7
08A0  2934  	GOTO	label199
08A1  0826  	MOVF float32_to_int32_1_absExp_1, W
08A2  3C1D  	SUBLW 0x1D
08A3  1803  	BTFSC STATUS,C
08A4  28DA  	GOTO	label189
08A5  1BA6  	BTFSC float32_to_int32_1_absExp_1,7
08A6  28DA  	GOTO	label189
08A7  0820  	MOVF float32_to_int32_arg_a, W
08A8  3C00  	SUBLW 0x00
08A9  1D03  	BTFSS STATUS,Z
08AA  28B7  	GOTO	label186
08AB  0821  	MOVF float32_to_int32_arg_a+D'1', W
08AC  3C00  	SUBLW 0x00
08AD  1D03  	BTFSS STATUS,Z
08AE  28B7  	GOTO	label186
08AF  0822  	MOVF float32_to_int32_arg_a+D'2', W
08B0  3C00  	SUBLW 0x00
08B1  1D03  	BTFSS STATUS,Z
08B2  28B7  	GOTO	label186
08B3  0823  	MOVF float32_to_int32_arg_a+D'3', W
08B4  3CCF  	SUBLW 0xCF
08B5  1903  	BTFSC STATUS,Z
08B6  28D3  	GOTO	label188
08B7        label186
08B7  1283  	BCF STATUS, RP0
08B8  1459  	BSF gbl_float_exception_flags,0
08B9  08DC  	MOVF gbl_17_gbl_aSign, F
08BA  1903  	BTFSC STATUS,Z
08BB  28CB  	GOTO	label187
08BC  1683  	BSF STATUS, RP0
08BD  0826  	MOVF float32_to_int32_1_absExp_1, W
08BE  3A7F  	XORLW 0x7F
08BF  1BA6  	BTFSC float32_to_int32_1_absExp_1,7
08C0  28D3  	GOTO	label188
08C1  1D03  	BTFSS STATUS,Z
08C2  28D3  	GOTO	label188
08C3  1283  	BCF STATUS, RP0
08C4  0824  	MOVF gbl_17_gbl_aSig, W
08C5  0425  	IORWF gbl_17_gbl_aSig+D'1', W
08C6  0426  	IORWF gbl_17_gbl_aSig+D'2', W
08C7  0427  	IORWF gbl_17_gbl_aSig+D'3', W
08C8  39FF  	ANDLW 0xFF
08C9  1903  	BTFSC STATUS,Z
08CA  28D3  	GOTO	label188
08CB        label187
08CB  307F  	MOVLW 0x7F
08CC  1683  	BSF STATUS, RP0
08CD  00AE  	MOVWF CompTempVarRet850+D'3'
08CE  30FF  	MOVLW 0xFF
08CF  00AB  	MOVWF CompTempVarRet850
08D0  00AC  	MOVWF CompTempVarRet850+D'1'
08D1  00AD  	MOVWF CompTempVarRet850+D'2'
08D2  0008  	RETURN
08D3        label188
08D3  1683  	BSF STATUS, RP0
08D4  01AB  	CLRF CompTempVarRet850
08D5  01AC  	CLRF CompTempVarRet850+D'1'
08D6  01AD  	CLRF CompTempVarRet850+D'2'
08D7  3080  	MOVLW 0x80
08D8  00AE  	MOVWF CompTempVarRet850+D'3'
08D9  0008  	RETURN
08DA        label189
08DA  3016  	MOVLW 0x16
08DB  02A6  	SUBWF float32_to_int32_1_absExp_1, F
08DC  1283  	BCF STATUS, RP0
08DD  17A6  	BSF gbl_17_gbl_aSig+D'2',7
08DE  1683  	BSF STATUS, RP0
08DF  0826  	MOVF float32_to_int32_1_absExp_1, W
08E0  00AF  	MOVWF float32_to_int32_28_i
08E1        label190
08E1  08AF  	MOVF float32_to_int32_28_i, F
08E2  1903  	BTFSC STATUS,Z
08E3  28ED  	GOTO	label191
08E4  1003  	BCF STATUS,C
08E5  1283  	BCF STATUS, RP0
08E6  0DA4  	RLF gbl_17_gbl_aSig, F
08E7  0DA5  	RLF gbl_17_gbl_aSig+D'1', F
08E8  0DA6  	RLF gbl_17_gbl_aSig+D'2', F
08E9  0DA7  	RLF gbl_17_gbl_aSig+D'3', F
08EA  1683  	BSF STATUS, RP0
08EB  03AF  	DECF float32_to_int32_28_i, F
08EC  28E1  	GOTO	label190
08ED        label191
08ED  1283  	BCF STATUS, RP0
08EE  08DC  	MOVF gbl_17_gbl_aSign, F
08EF  1903  	BTFSC STATUS,Z
08F0  2924  	GOTO	label198
08F1  0824  	MOVF gbl_17_gbl_aSig, W
08F2  3C00  	SUBLW 0x00
08F3  1683  	BSF STATUS, RP0
08F4  00AF  	MOVWF CompTempVar867
08F5  3000  	MOVLW 0x00
08F6  00B0  	MOVWF CompTempVar868
08F7  00B1  	MOVWF CompTempVar869
08F8  00B2  	MOVWF CompTempVar870
08F9  1283  	BCF STATUS, RP0
08FA  0825  	MOVF gbl_17_gbl_aSig+D'1', W
08FB  1803  	BTFSC STATUS,C
08FC  2900  	GOTO	label192
08FD  0F25  	INCFSZ gbl_17_gbl_aSig+D'1', W
08FE  2900  	GOTO	label192
08FF  2902  	GOTO	label193
0900        label192
0900  1683  	BSF STATUS, RP0
0901  02B0  	SUBWF CompTempVar868, F
0902        label193
0902  1283  	BCF STATUS, RP0
0903  0826  	MOVF gbl_17_gbl_aSig+D'2', W
0904  1803  	BTFSC STATUS,C
0905  2909  	GOTO	label194
0906  0F26  	INCFSZ gbl_17_gbl_aSig+D'2', W
0907  2909  	GOTO	label194
0908  290B  	GOTO	label195
0909        label194
0909  1683  	BSF STATUS, RP0
090A  02B1  	SUBWF CompTempVar869, F
090B        label195
090B  1283  	BCF STATUS, RP0
090C  0827  	MOVF gbl_17_gbl_aSig+D'3', W
090D  1803  	BTFSC STATUS,C
090E  2912  	GOTO	label196
090F  0F27  	INCFSZ gbl_17_gbl_aSig+D'3', W
0910  2912  	GOTO	label196
0911  2914  	GOTO	label197
0912        label196
0912  1683  	BSF STATUS, RP0
0913  02B2  	SUBWF CompTempVar870, F
0914        label197
0914  1683  	BSF STATUS, RP0
0915  082F  	MOVF CompTempVar867, W
0916  1283  	BCF STATUS, RP0
0917  00A4  	MOVWF gbl_17_gbl_aSig
0918  1683  	BSF STATUS, RP0
0919  0830  	MOVF CompTempVar868, W
091A  1283  	BCF STATUS, RP0
091B  00A5  	MOVWF gbl_17_gbl_aSig+D'1'
091C  1683  	BSF STATUS, RP0
091D  0831  	MOVF CompTempVar869, W
091E  1283  	BCF STATUS, RP0
091F  00A6  	MOVWF gbl_17_gbl_aSig+D'2'
0920  1683  	BSF STATUS, RP0
0921  0832  	MOVF CompTempVar870, W
0922  1283  	BCF STATUS, RP0
0923  00A7  	MOVWF gbl_17_gbl_aSig+D'3'
0924        label198
0924  0824  	MOVF gbl_17_gbl_aSig, W
0925  1683  	BSF STATUS, RP0
0926  00AB  	MOVWF CompTempVarRet850
0927  1283  	BCF STATUS, RP0
0928  0825  	MOVF gbl_17_gbl_aSig+D'1', W
0929  1683  	BSF STATUS, RP0
092A  00AC  	MOVWF CompTempVarRet850+D'1'
092B  1283  	BCF STATUS, RP0
092C  0826  	MOVF gbl_17_gbl_aSig+D'2', W
092D  1683  	BSF STATUS, RP0
092E  00AD  	MOVWF CompTempVarRet850+D'2'
092F  1283  	BCF STATUS, RP0
0930  0827  	MOVF gbl_17_gbl_aSig+D'3', W
0931  1683  	BSF STATUS, RP0
0932  00AE  	MOVWF CompTempVarRet850+D'3'
0933  0008  	RETURN
0934        label199
0934  307E  	MOVLW 0x7E
0935  1283  	BCF STATUS, RP0
0936  025A  	SUBWF gbl_17_gbl_aExp, W
0937  1803  	BTFSC STATUS,C
0938  2955  	GOTO	label204
0939  08DA  	MOVF gbl_17_gbl_aExp, F
093A  1903  	BTFSC STATUS,Z
093B  293D  	GOTO	label200
093C  2944  	GOTO	label201
093D        label200
093D  0824  	MOVF gbl_17_gbl_aSig, W
093E  0425  	IORWF gbl_17_gbl_aSig+D'1', W
093F  0426  	IORWF gbl_17_gbl_aSig+D'2', W
0940  0427  	IORWF gbl_17_gbl_aSig+D'3', W
0941  39FF  	ANDLW 0xFF
0942  1903  	BTFSC STATUS,Z
0943  294B  	GOTO	label202
0944        label201
0944  3001  	MOVLW 0x01
0945  1683  	BSF STATUS, RP0
0946  00AF  	MOVWF float32_to_int32_32_aSigExtra
0947  01B0  	CLRF float32_to_int32_32_aSigExtra+D'1'
0948  01B1  	CLRF float32_to_int32_32_aSigExtra+D'2'
0949  01B2  	CLRF float32_to_int32_32_aSigExtra+D'3'
094A  2950  	GOTO	label203
094B        label202
094B  1683  	BSF STATUS, RP0
094C  01AF  	CLRF float32_to_int32_32_aSigExtra
094D  01B0  	CLRF float32_to_int32_32_aSigExtra+D'1'
094E  01B1  	CLRF float32_to_int32_32_aSigExtra+D'2'
094F  01B2  	CLRF float32_to_int32_32_aSigExtra+D'3'
0950        label203
0950  01A7  	CLRF float32_to_int32_1_z
0951  01A8  	CLRF float32_to_int32_1_z+D'1'
0952  01A9  	CLRF float32_to_int32_1_z+D'2'
0953  01AA  	CLRF float32_to_int32_1_z+D'3'
0954  2993  	GOTO	label208
0955        label204
0955  17A6  	BSF gbl_17_gbl_aSig+D'2',7
0956  0824  	MOVF gbl_17_gbl_aSig, W
0957  1683  	BSF STATUS, RP0
0958  00AF  	MOVWF float32_to_int32_32_aSigExtra
0959  1283  	BCF STATUS, RP0
095A  0825  	MOVF gbl_17_gbl_aSig+D'1', W
095B  1683  	BSF STATUS, RP0
095C  00B0  	MOVWF float32_to_int32_32_aSigExtra+D'1'
095D  1283  	BCF STATUS, RP0
095E  0826  	MOVF gbl_17_gbl_aSig+D'2', W
095F  1683  	BSF STATUS, RP0
0960  00B1  	MOVWF float32_to_int32_32_aSigExtra+D'2'
0961  1283  	BCF STATUS, RP0
0962  0827  	MOVF gbl_17_gbl_aSig+D'3', W
0963  1683  	BSF STATUS, RP0
0964  00B2  	MOVWF float32_to_int32_32_aSigExtra+D'3'
0965  301F  	MOVLW 0x1F
0966  0524  	ANDWF float32_to_int32_1_shiftCount, W
0967  00B3  	MOVWF float32_to_int32_40_i
0968        label205
0968  08B3  	MOVF float32_to_int32_40_i, F
0969  1903  	BTFSC STATUS,Z
096A  2972  	GOTO	label206
096B  1003  	BCF STATUS,C
096C  0DAF  	RLF float32_to_int32_32_aSigExtra, F
096D  0DB0  	RLF float32_to_int32_32_aSigExtra+D'1', F
096E  0DB1  	RLF float32_to_int32_32_aSigExtra+D'2', F
096F  0DB2  	RLF float32_to_int32_32_aSigExtra+D'3', F
0970  03B3  	DECF float32_to_int32_40_i, F
0971  2968  	GOTO	label205
0972        label206
0972  1283  	BCF STATUS, RP0
0973  0824  	MOVF gbl_17_gbl_aSig, W
0974  1683  	BSF STATUS, RP0
0975  00A7  	MOVWF float32_to_int32_1_z
0976  1283  	BCF STATUS, RP0
0977  0825  	MOVF gbl_17_gbl_aSig+D'1', W
0978  1683  	BSF STATUS, RP0
0979  00A8  	MOVWF float32_to_int32_1_z+D'1'
097A  1283  	BCF STATUS, RP0
097B  0826  	MOVF gbl_17_gbl_aSig+D'2', W
097C  1683  	BSF STATUS, RP0
097D  00A9  	MOVWF float32_to_int32_1_z+D'2'
097E  1283  	BCF STATUS, RP0
097F  0827  	MOVF gbl_17_gbl_aSig+D'3', W
0980  1683  	BSF STATUS, RP0
0981  00AA  	MOVWF float32_to_int32_1_z+D'3'
0982  09A4  	COMF float32_to_int32_1_shiftCount, F
0983  09A5  	COMF float32_to_int32_1_shiftCount+D'1', F
0984  0AA4  	INCF float32_to_int32_1_shiftCount, F
0985  1903  	BTFSC STATUS,Z
0986  0AA5  	INCF float32_to_int32_1_shiftCount+D'1', F
0987  0824  	MOVF float32_to_int32_1_shiftCount, W
0988  00B3  	MOVWF float32_to_int32_44_i
0989        label207
0989  08B3  	MOVF float32_to_int32_44_i, F
098A  1903  	BTFSC STATUS,Z
098B  2993  	GOTO	label208
098C  0D2A  	RLF float32_to_int32_1_z+D'3', W
098D  0CAA  	RRF float32_to_int32_1_z+D'3', F
098E  0CA9  	RRF float32_to_int32_1_z+D'2', F
098F  0CA8  	RRF float32_to_int32_1_z+D'1', F
0990  0CA7  	RRF float32_to_int32_1_z, F
0991  03B3  	DECF float32_to_int32_44_i, F
0992  2989  	GOTO	label207
0993        label208
0993  082F  	MOVF float32_to_int32_32_aSigExtra, W
0994  0430  	IORWF float32_to_int32_32_aSigExtra+D'1', W
0995  0431  	IORWF float32_to_int32_32_aSigExtra+D'2', W
0996  0432  	IORWF float32_to_int32_32_aSigExtra+D'3', W
0997  39FF  	ANDLW 0xFF
0998  1903  	BTFSC STATUS,Z
0999  299C  	GOTO	label209
099A  1283  	BCF STATUS, RP0
099B  16D9  	BSF gbl_float_exception_flags,5
099C        label209
099C  1283  	BCF STATUS, RP0
099D  08D8  	MOVF gbl_float_rounding_mode, F
099E  1D03  	BTFSS STATUS,Z
099F  29E1  	GOTO	label211
09A0  1683  	BSF STATUS, RP0
09A1  1FB2  	BTFSS float32_to_int32_32_aSigExtra+D'3',7
09A2  29C0  	GOTO	label210
09A3  0AA7  	INCF float32_to_int32_1_z, F
09A4  1903  	BTFSC STATUS,Z
09A5  0AA8  	INCF float32_to_int32_1_z+D'1', F
09A6  1903  	BTFSC STATUS,Z
09A7  0AA9  	INCF float32_to_int32_1_z+D'2', F
09A8  1903  	BTFSC STATUS,Z
09A9  0AAA  	INCF float32_to_int32_1_z+D'3', F
09AA  082F  	MOVF float32_to_int32_32_aSigExtra, W
09AB  00B3  	MOVWF CompTempVar875
09AC  0830  	MOVF float32_to_int32_32_aSigExtra+D'1', W
09AD  00B4  	MOVWF CompTempVar876
09AE  0831  	MOVF float32_to_int32_32_aSigExtra+D'2', W
09AF  00B5  	MOVWF CompTempVar877
09B0  0832  	MOVF float32_to_int32_32_aSigExtra+D'3', W
09B1  00B6  	MOVWF CompTempVar878
09B2  1003  	BCF STATUS,C
09B3  0DB3  	RLF CompTempVar875, F
09B4  0DB4  	RLF CompTempVar876, F
09B5  0DB5  	RLF CompTempVar877, F
09B6  0DB6  	RLF CompTempVar878, F
09B7  0833  	MOVF CompTempVar875, W
09B8  0434  	IORWF CompTempVar876, W
09B9  0435  	IORWF CompTempVar877, W
09BA  0436  	IORWF CompTempVar878, W
09BB  39FF  	ANDLW 0xFF
09BC  1D03  	BTFSS STATUS,Z
09BD  29C0  	GOTO	label210
09BE  30FE  	MOVLW 0xFE
09BF  05A7  	ANDWF float32_to_int32_1_z, F
09C0        label210
09C0  1283  	BCF STATUS, RP0
09C1  08DC  	MOVF gbl_17_gbl_aSign, F
09C2  1903  	BTFSC STATUS,Z
09C3  2A28  	GOTO	label214
09C4  1683  	BSF STATUS, RP0
09C5  0827  	MOVF float32_to_int32_1_z, W
09C6  3C00  	SUBLW 0x00
09C7  00B3  	MOVWF CompTempVar879
09C8  3000  	MOVLW 0x00
09C9  00B4  	MOVWF CompTempVar880
09CA  00B5  	MOVWF CompTempVar881
09CB  00B6  	MOVWF CompTempVar882
09CC  0828  	MOVF float32_to_int32_1_z+D'1', W
09CD  1C03  	BTFSS STATUS,C
09CE  0F28  	INCFSZ float32_to_int32_1_z+D'1', W
09CF  02B4  	SUBWF CompTempVar880, F
09D0  0829  	MOVF float32_to_int32_1_z+D'2', W
09D1  1C03  	BTFSS STATUS,C
09D2  0F29  	INCFSZ float32_to_int32_1_z+D'2', W
09D3  02B5  	SUBWF CompTempVar881, F
09D4  082A  	MOVF float32_to_int32_1_z+D'3', W
09D5  1C03  	BTFSS STATUS,C
09D6  0F2A  	INCFSZ float32_to_int32_1_z+D'3', W
09D7  02B6  	SUBWF CompTempVar882, F
09D8  0833  	MOVF CompTempVar879, W
09D9  00A7  	MOVWF float32_to_int32_1_z
09DA  0834  	MOVF CompTempVar880, W
09DB  00A8  	MOVWF float32_to_int32_1_z+D'1'
09DC  0835  	MOVF CompTempVar881, W
09DD  00A9  	MOVWF float32_to_int32_1_z+D'2'
09DE  0836  	MOVF CompTempVar882, W
09DF  00AA  	MOVWF float32_to_int32_1_z+D'3'
09E0  2A28  	GOTO	label214
09E1        label211
09E1  1683  	BSF STATUS, RP0
09E2  01B3  	CLRF float32_to_int32_53_extraNonZero
09E3  082F  	MOVF float32_to_int32_32_aSigExtra, W
09E4  0430  	IORWF float32_to_int32_32_aSigExtra+D'1', W
09E5  0431  	IORWF float32_to_int32_32_aSigExtra+D'2', W
09E6  0432  	IORWF float32_to_int32_32_aSigExtra+D'3', W
09E7  39FF  	ANDLW 0xFF
09E8  1D03  	BTFSS STATUS,Z
09E9  1433  	BSF float32_to_int32_53_extraNonZero,0
09EA  1283  	BCF STATUS, RP0
09EB  08DC  	MOVF gbl_17_gbl_aSign, F
09EC  1903  	BTFSC STATUS,Z
09ED  2A19  	GOTO	label213
09EE  0358  	DECF gbl_float_rounding_mode, W
09EF  1D03  	BTFSS STATUS,Z
09F0  29FC  	GOTO	label212
09F1  1683  	BSF STATUS, RP0
09F2  08B3  	MOVF float32_to_int32_53_extraNonZero, F
09F3  1903  	BTFSC STATUS,Z
09F4  29FC  	GOTO	label212
09F5  0AA7  	INCF float32_to_int32_1_z, F
09F6  1903  	BTFSC STATUS,Z
09F7  0AA8  	INCF float32_to_int32_1_z+D'1', F
09F8  1903  	BTFSC STATUS,Z
09F9  0AA9  	INCF float32_to_int32_1_z+D'2', F
09FA  1903  	BTFSC STATUS,Z
09FB  0AAA  	INCF float32_to_int32_1_z+D'3', F
09FC        label212
09FC  1683  	BSF STATUS, RP0
09FD  0827  	MOVF float32_to_int32_1_z, W
09FE  3C00  	SUBLW 0x00
09FF  00B4  	MOVWF CompTempVar884
0A00  3000  	MOVLW 0x00
0A01  00B5  	MOVWF CompTempVar885
0A02  00B6  	MOVWF CompTempVar886
0A03  00B7  	MOVWF CompTempVar887
0A04  0828  	MOVF float32_to_int32_1_z+D'1', W
0A05  1C03  	BTFSS STATUS,C
0A06  0F28  	INCFSZ float32_to_int32_1_z+D'1', W
0A07  02B5  	SUBWF CompTempVar885, F
0A08  0829  	MOVF float32_to_int32_1_z+D'2', W
0A09  1C03  	BTFSS STATUS,C
0A0A  0F29  	INCFSZ float32_to_int32_1_z+D'2', W
0A0B  02B6  	SUBWF CompTempVar886, F
0A0C  082A  	MOVF float32_to_int32_1_z+D'3', W
0A0D  1C03  	BTFSS STATUS,C
0A0E  0F2A  	INCFSZ float32_to_int32_1_z+D'3', W
0A0F  02B7  	SUBWF CompTempVar887, F
0A10  0834  	MOVF CompTempVar884, W
0A11  00A7  	MOVWF float32_to_int32_1_z
0A12  0835  	MOVF CompTempVar885, W
0A13  00A8  	MOVWF float32_to_int32_1_z+D'1'
0A14  0836  	MOVF CompTempVar886, W
0A15  00A9  	MOVWF float32_to_int32_1_z+D'2'
0A16  0837  	MOVF CompTempVar887, W
0A17  00AA  	MOVWF float32_to_int32_1_z+D'3'
0A18  2A28  	GOTO	label214
0A19        label213
0A19  0858  	MOVF gbl_float_rounding_mode, W
0A1A  3A02  	XORLW 0x02
0A1B  1D03  	BTFSS STATUS,Z
0A1C  2A28  	GOTO	label214
0A1D  1683  	BSF STATUS, RP0
0A1E  08B3  	MOVF float32_to_int32_53_extraNonZero, F
0A1F  1903  	BTFSC STATUS,Z
0A20  2A28  	GOTO	label214
0A21  0AA7  	INCF float32_to_int32_1_z, F
0A22  1903  	BTFSC STATUS,Z
0A23  0AA8  	INCF float32_to_int32_1_z+D'1', F
0A24  1903  	BTFSC STATUS,Z
0A25  0AA9  	INCF float32_to_int32_1_z+D'2', F
0A26  1903  	BTFSC STATUS,Z
0A27  0AAA  	INCF float32_to_int32_1_z+D'3', F
0A28        label214
0A28  1683  	BSF STATUS, RP0
0A29  0827  	MOVF float32_to_int32_1_z, W
0A2A  00AB  	MOVWF CompTempVarRet850
0A2B  0828  	MOVF float32_to_int32_1_z+D'1', W
0A2C  00AC  	MOVWF CompTempVarRet850+D'1'
0A2D  0829  	MOVF float32_to_int32_1_z+D'2', W
0A2E  00AD  	MOVWF CompTempVarRet850+D'2'
0A2F  082A  	MOVF float32_to_int32_1_z+D'3', W
0A30  00AE  	MOVWF CompTempVarRet850+D'3'
0A31  0008  	RETURN
0A32        ; } float32_to_int32 function end

	ORG 0x00000A32
0A32        float32_le
0A32        ; { float32_le ; function begin
0A32  0823  	MOVF float32_le_arg_a+D'3', W
0A33  00C1  	MOVWF float32_le_2_a+D'3'
0A34  0822  	MOVF float32_le_arg_a+D'2', W
0A35  00C0  	MOVWF float32_le_2_a+D'2'
0A36  0821  	MOVF float32_le_arg_a+D'1', W
0A37  00BF  	MOVWF float32_le_2_a+D'1'
0A38  0820  	MOVF float32_le_arg_a, W
0A39  00BE  	MOVWF float32_le_2_a
0A3A  0841  	MOVF float32_le_2_a+D'3', W
0A3B  00C2  	MOVWF float32_le_4_ret
0A3C  1003  	BCF STATUS,C
0A3D  0DC2  	RLF float32_le_4_ret, F
0A3E  1BC0  	BTFSC float32_le_2_a+D'2',7
0A3F  1442  	BSF float32_le_4_ret,0
0A40  0842  	MOVF float32_le_4_ret, W
0A41  00AA  	MOVWF CompTempVar1737
0A42  01AB  	CLRF CompTempVar1737+D'1'
0A43  30FF  	MOVLW 0xFF
0A44  062A  	XORWF CompTempVar1737, W
0A45  1903  	BTFSC STATUS,Z
0A46  082B  	MOVF CompTempVar1737+D'1', W
0A47  1D03  	BTFSS STATUS,Z
0A48  2A62  	GOTO	label215
0A49  0823  	MOVF float32_le_arg_a+D'3', W
0A4A  00C1  	MOVWF float32_le_8_a+D'3'
0A4B  0822  	MOVF float32_le_arg_a+D'2', W
0A4C  00C0  	MOVWF float32_le_8_a+D'2'
0A4D  0821  	MOVF float32_le_arg_a+D'1', W
0A4E  00BF  	MOVWF float32_le_8_a+D'1'
0A4F  0820  	MOVF float32_le_arg_a, W
0A50  00BE  	MOVWF float32_le_8_a
0A51  13C0  	BCF float32_le_8_a+D'2',7
0A52  01C1  	CLRF float32_le_8_a+D'3'
0A53  083E  	MOVF float32_le_8_a, W
0A54  00AC  	MOVWF CompTempVar1738
0A55  083F  	MOVF float32_le_8_a+D'1', W
0A56  00AD  	MOVWF CompTempVar1738+D'1'
0A57  0840  	MOVF float32_le_8_a+D'2', W
0A58  00AE  	MOVWF CompTempVar1738+D'2'
0A59  3000  	MOVLW 0x00
0A5A  00AF  	MOVWF CompTempVar1738+D'3'
0A5B  082C  	MOVF CompTempVar1738, W
0A5C  042D  	IORWF CompTempVar1738+D'1', W
0A5D  042E  	IORWF CompTempVar1738+D'2', W
0A5E  042F  	IORWF CompTempVar1738+D'3', W
0A5F  39FF  	ANDLW 0xFF
0A60  1D03  	BTFSS STATUS,Z
0A61  2A92  	GOTO	label216
0A62        label215
0A62  0827  	MOVF float32_le_arg_b+D'3', W
0A63  00C1  	MOVWF float32_le_14_a+D'3'
0A64  0826  	MOVF float32_le_arg_b+D'2', W
0A65  00C0  	MOVWF float32_le_14_a+D'2'
0A66  0825  	MOVF float32_le_arg_b+D'1', W
0A67  00BF  	MOVWF float32_le_14_a+D'1'
0A68  0824  	MOVF float32_le_arg_b, W
0A69  00BE  	MOVWF float32_le_14_a
0A6A  0841  	MOVF float32_le_14_a+D'3', W
0A6B  00C2  	MOVWF float32_le_16_ret
0A6C  1003  	BCF STATUS,C
0A6D  0DC2  	RLF float32_le_16_ret, F
0A6E  1BC0  	BTFSC float32_le_14_a+D'2',7
0A6F  1442  	BSF float32_le_16_ret,0
0A70  0842  	MOVF float32_le_16_ret, W
0A71  00B0  	MOVWF CompTempVar1741
0A72  01B1  	CLRF CompTempVar1741+D'1'
0A73  30FF  	MOVLW 0xFF
0A74  0630  	XORWF CompTempVar1741, W
0A75  1903  	BTFSC STATUS,Z
0A76  0831  	MOVF CompTempVar1741+D'1', W
0A77  1D03  	BTFSS STATUS,Z
0A78  2A97  	GOTO	label217
0A79  0827  	MOVF float32_le_arg_b+D'3', W
0A7A  00C1  	MOVWF float32_le_20_a+D'3'
0A7B  0826  	MOVF float32_le_arg_b+D'2', W
0A7C  00C0  	MOVWF float32_le_20_a+D'2'
0A7D  0825  	MOVF float32_le_arg_b+D'1', W
0A7E  00BF  	MOVWF float32_le_20_a+D'1'
0A7F  0824  	MOVF float32_le_arg_b, W
0A80  00BE  	MOVWF float32_le_20_a
0A81  13C0  	BCF float32_le_20_a+D'2',7
0A82  01C1  	CLRF float32_le_20_a+D'3'
0A83  083E  	MOVF float32_le_20_a, W
0A84  00B2  	MOVWF CompTempVar1742
0A85  083F  	MOVF float32_le_20_a+D'1', W
0A86  00B3  	MOVWF CompTempVar1742+D'1'
0A87  0840  	MOVF float32_le_20_a+D'2', W
0A88  00B4  	MOVWF CompTempVar1742+D'2'
0A89  3000  	MOVLW 0x00
0A8A  00B5  	MOVWF CompTempVar1742+D'3'
0A8B  0832  	MOVF CompTempVar1742, W
0A8C  0433  	IORWF CompTempVar1742+D'1', W
0A8D  0434  	IORWF CompTempVar1742+D'2', W
0A8E  0435  	IORWF CompTempVar1742+D'3', W
0A8F  39FF  	ANDLW 0xFF
0A90  1903  	BTFSC STATUS,Z
0A91  2A97  	GOTO	label217
0A92        label216
0A92  1283  	BCF STATUS, RP0
0A93  1459  	BSF gbl_float_exception_flags,0
0A94  1683  	BSF STATUS, RP0
0A95  01BE  	CLRF CompTempVarRet1726
0A96  0008  	RETURN
0A97        label217
0A97  0823  	MOVF float32_le_arg_a+D'3', W
0A98  00C2  	MOVWF float32_le_31_a+D'3'
0A99  0822  	MOVF float32_le_arg_a+D'2', W
0A9A  00C1  	MOVWF float32_le_31_a+D'2'
0A9B  0821  	MOVF float32_le_arg_a+D'1', W
0A9C  00C0  	MOVWF float32_le_31_a+D'1'
0A9D  0820  	MOVF float32_le_arg_a, W
0A9E  00BF  	MOVWF float32_le_31_a
0A9F  3080  	MOVLW 0x80
0AA0  0542  	ANDWF float32_le_31_a+D'3', W
0AA1  00C3  	MOVWF CompTempVar1769
0AA2  01A8  	CLRF float32_le_1_aSign
0AA3  08C3  	MOVF CompTempVar1769, F
0AA4  1D03  	BTFSS STATUS,Z
0AA5  1428  	BSF float32_le_1_aSign,0
0AA6  0827  	MOVF float32_le_arg_b+D'3', W
0AA7  00C2  	MOVWF float32_le_36_a+D'3'
0AA8  0826  	MOVF float32_le_arg_b+D'2', W
0AA9  00C1  	MOVWF float32_le_36_a+D'2'
0AAA  0825  	MOVF float32_le_arg_b+D'1', W
0AAB  00C0  	MOVWF float32_le_36_a+D'1'
0AAC  0824  	MOVF float32_le_arg_b, W
0AAD  00BF  	MOVWF float32_le_36_a
0AAE  3080  	MOVLW 0x80
0AAF  0542  	ANDWF float32_le_36_a+D'3', W
0AB0  00C3  	MOVWF CompTempVar1773
0AB1  01A9  	CLRF float32_le_1_bSign
0AB2  08C3  	MOVF CompTempVar1773, F
0AB3  1D03  	BTFSS STATUS,Z
0AB4  1429  	BSF float32_le_1_bSign,0
0AB5  0829  	MOVF float32_le_1_bSign, W
0AB6  0628  	XORWF float32_le_1_aSign, W
0AB7  1903  	BTFSC STATUS,Z
0AB8  2AE1  	GOTO	label218
0AB9  0824  	MOVF float32_le_arg_b, W
0ABA  0420  	IORWF float32_le_arg_a, W
0ABB  00B6  	MOVWF CompTempVar1751
0ABC  0825  	MOVF float32_le_arg_b+D'1', W
0ABD  0421  	IORWF float32_le_arg_a+D'1', W
0ABE  00B7  	MOVWF CompTempVar1752
0ABF  0826  	MOVF float32_le_arg_b+D'2', W
0AC0  0422  	IORWF float32_le_arg_a+D'2', W
0AC1  00B8  	MOVWF CompTempVar1753
0AC2  0827  	MOVF float32_le_arg_b+D'3', W
0AC3  0423  	IORWF float32_le_arg_a+D'3', W
0AC4  00B9  	MOVWF CompTempVar1754
0AC5  1003  	BCF STATUS,C
0AC6  0DB6  	RLF CompTempVar1751, F
0AC7  0DB7  	RLF CompTempVar1752, F
0AC8  0DB8  	RLF CompTempVar1753, F
0AC9  0DB9  	RLF CompTempVar1754, F
0ACA  01BA  	CLRF CompTempVar1755
0ACB  0ABA  	INCF CompTempVar1755, F
0ACC  08B6  	MOVF CompTempVar1751, F
0ACD  1D03  	BTFSS STATUS,Z
0ACE  103A  	BCF CompTempVar1755,0
0ACF  08B7  	MOVF CompTempVar1752, F
0AD0  1D03  	BTFSS STATUS,Z
0AD1  103A  	BCF CompTempVar1755,0
0AD2  08B8  	MOVF CompTempVar1753, F
0AD3  1D03  	BTFSS STATUS,Z
0AD4  103A  	BCF CompTempVar1755,0
0AD5  08B9  	MOVF CompTempVar1754, F
0AD6  1D03  	BTFSS STATUS,Z
0AD7  103A  	BCF CompTempVar1755,0
0AD8  01BF  	CLRF CompTempVar1775
0AD9  08BA  	MOVF CompTempVar1755, F
0ADA  1903  	BTFSC STATUS,Z
0ADB  08A8  	MOVF float32_le_1_aSign, F
0ADC  1D03  	BTFSS STATUS,Z
0ADD  0ABF  	INCF CompTempVar1775, F
0ADE  083F  	MOVF CompTempVar1775, W
0ADF  00BE  	MOVWF CompTempVarRet1726
0AE0  0008  	RETURN
0AE1        label218
0AE1  01BD  	CLRF CompTempVar1758
0AE2  0ABD  	INCF CompTempVar1758, F
0AE3  0824  	MOVF float32_le_arg_b, W
0AE4  0220  	SUBWF float32_le_arg_a, W
0AE5  1D03  	BTFSS STATUS,Z
0AE6  01BD  	CLRF CompTempVar1758
0AE7  0825  	MOVF float32_le_arg_b+D'1', W
0AE8  0221  	SUBWF float32_le_arg_a+D'1', W
0AE9  1D03  	BTFSS STATUS,Z
0AEA  01BD  	CLRF CompTempVar1758
0AEB  0826  	MOVF float32_le_arg_b+D'2', W
0AEC  0222  	SUBWF float32_le_arg_a+D'2', W
0AED  1D03  	BTFSS STATUS,Z
0AEE  01BD  	CLRF CompTempVar1758
0AEF  0827  	MOVF float32_le_arg_b+D'3', W
0AF0  0223  	SUBWF float32_le_arg_a+D'3', W
0AF1  1D03  	BTFSS STATUS,Z
0AF2  01BD  	CLRF CompTempVar1758
0AF3  01BB  	CLRF CompTempVar1756
0AF4  0827  	MOVF float32_le_arg_b+D'3', W
0AF5  0223  	SUBWF float32_le_arg_a+D'3', W
0AF6  1D03  	BTFSS STATUS,Z
0AF7  2B02  	GOTO	label219
0AF8  0826  	MOVF float32_le_arg_b+D'2', W
0AF9  0222  	SUBWF float32_le_arg_a+D'2', W
0AFA  1D03  	BTFSS STATUS,Z
0AFB  2B02  	GOTO	label219
0AFC  0825  	MOVF float32_le_arg_b+D'1', W
0AFD  0221  	SUBWF float32_le_arg_a+D'1', W
0AFE  1D03  	BTFSS STATUS,Z
0AFF  2B02  	GOTO	label219
0B00  0824  	MOVF float32_le_arg_b, W
0B01  0220  	SUBWF float32_le_arg_a, W
0B02        label219
0B02  1C03  	BTFSS STATUS,C
0B03  0ABB  	INCF CompTempVar1756, F
0B04  083B  	MOVF CompTempVar1756, W
0B05  0628  	XORWF float32_le_1_aSign, W
0B06  00BC  	MOVWF CompTempVar1757
0B07  01BF  	CLRF CompTempVar1776
0B08  08BC  	MOVF CompTempVar1757, F
0B09  1903  	BTFSC STATUS,Z
0B0A  08BD  	MOVF CompTempVar1758, F
0B0B  1D03  	BTFSS STATUS,Z
0B0C  0ABF  	INCF CompTempVar1776, F
0B0D  083F  	MOVF CompTempVar1776, W
0B0E  00BE  	MOVWF CompTempVarRet1726
0B0F  0008  	RETURN
0B10        ; } float32_le function end

	ORG 0x00000B10
0B10        FCI_TOSTRI_00017
0B10        ; { FCI_TOSTRING ; function begin
0B10  01A8  	CLRF FCI_TOSTRI_00017_1_idx
0B11  1FA1  	BTFSS FCI_TOSTRI_00017_arg_iSrc1+D'1',7
0B12  2B23  	GOTO	label220
0B13  1383  	BCF STATUS,IRP
0B14  1823  	BTFSC FCI_TOSTRI_00017_arg_sDst+D'1',0
0B15  1783  	BSF STATUS,IRP
0B16  0822  	MOVF FCI_TOSTRI_00017_arg_sDst, W
0B17  0084  	MOVWF FSR
0B18  302D  	MOVLW 0x2D
0B19  0080  	MOVWF INDF
0B1A  0AA8  	INCF FCI_TOSTRI_00017_1_idx, F
0B1B  0820  	MOVF FCI_TOSTRI_00017_arg_iSrc1, W
0B1C  3C00  	SUBLW 0x00
0B1D  00A9  	MOVWF CompTempVar726
0B1E  09A1  	COMF FCI_TOSTRI_00017_arg_iSrc1+D'1', F
0B1F  1803  	BTFSC STATUS,C
0B20  0AA1  	INCF FCI_TOSTRI_00017_arg_iSrc1+D'1', F
0B21  0829  	MOVF CompTempVar726, W
0B22  00A0  	MOVWF FCI_TOSTRI_00017_arg_iSrc1
0B23        label220
0B23  0820  	MOVF FCI_TOSTRI_00017_arg_iSrc1, W
0B24  00A6  	MOVWF FCI_TOSTRI_00017_1_tmp2
0B25  0821  	MOVF FCI_TOSTRI_00017_arg_iSrc1+D'1', W
0B26  00A7  	MOVWF FCI_TOSTRI_00017_1_tmp2+D'1'
0B27  3027  	MOVLW 0x27
0B28  0221  	SUBWF FCI_TOSTRI_00017_arg_iSrc1+D'1', W
0B29  1D03  	BTFSS STATUS,Z
0B2A  2B2D  	GOTO	label221
0B2B  3010  	MOVLW 0x10
0B2C  0220  	SUBWF FCI_TOSTRI_00017_arg_iSrc1, W
0B2D        label221
0B2D  1C03  	BTFSS STATUS,C
0B2E  2B6D  	GOTO	label225
0B2F  1BA1  	BTFSC FCI_TOSTRI_00017_arg_iSrc1+D'1',7
0B30  2B6D  	GOTO	label225
0B31  0824  	MOVF FCI_TOSTRI_00017_arg_iDst_len, W
0B32  0228  	SUBWF FCI_TOSTRI_00017_1_idx, W
0B33  1803  	BTFSC STATUS,C
0B34  2B5B  	GOTO	label224
0B35  01AD  	CLRF CompTempVar729
0B36  0826  	MOVF FCI_TOSTRI_00017_1_tmp2, W
0B37  00A9  	MOVWF __div_16_1_00003_arg_a
0B38  0827  	MOVF FCI_TOSTRI_00017_1_tmp2+D'1', W
0B39  00AA  	MOVWF __div_16_1_00003_arg_a+D'1'
0B3A  1FA7  	BTFSS FCI_TOSTRI_00017_1_tmp2+D'1',7
0B3B  2B42  	GOTO	label222
0B3C  09A9  	COMF __div_16_1_00003_arg_a, F
0B3D  09AA  	COMF __div_16_1_00003_arg_a+D'1', F
0B3E  0AA9  	INCF __div_16_1_00003_arg_a, F
0B3F  1903  	BTFSC STATUS,Z
0B40  0AAA  	INCF __div_16_1_00003_arg_a+D'1', F
0B41  0AAD  	INCF CompTempVar729, F
0B42        label222
0B42  3010  	MOVLW 0x10
0B43  00AB  	MOVWF __div_16_1_00003_arg_b
0B44  3027  	MOVLW 0x27
0B45  00AC  	MOVWF __div_16_1_00003_arg_b+D'1'
0B46  118A  	BCF PCLATH,3
0B47  2709  	CALL __div_16_1_00003
0B48  0832  	MOVF CompTempVarRet243, W
0B49  00A5  	MOVWF FCI_TOSTRI_00017_1_tmp1
0B4A  158A  	BSF PCLATH,3
0B4B  1C2D  	BTFSS CompTempVar729,0
0B4C  2B4F  	GOTO	label223
0B4D  09A5  	COMF FCI_TOSTRI_00017_1_tmp1, F
0B4E  0AA5  	INCF FCI_TOSTRI_00017_1_tmp1, F
0B4F        label223
0B4F  0825  	MOVF FCI_TOSTRI_00017_1_tmp1, W
0B50  3E30  	ADDLW 0x30
0B51  00A9  	MOVWF CompTempVar731
0B52  1383  	BCF STATUS,IRP
0B53  1823  	BTFSC FCI_TOSTRI_00017_arg_sDst+D'1',0
0B54  1783  	BSF STATUS,IRP
0B55  0822  	MOVF FCI_TOSTRI_00017_arg_sDst, W
0B56  0728  	ADDWF FCI_TOSTRI_00017_1_idx, W
0B57  0084  	MOVWF FSR
0B58  0829  	MOVF CompTempVar731, W
0B59  0080  	MOVWF INDF
0B5A  0AA8  	INCF FCI_TOSTRI_00017_1_idx, F
0B5B        label224
0B5B  0825  	MOVF FCI_TOSTRI_00017_1_tmp1, W
0B5C  3C00  	SUBLW 0x00
0B5D  1803  	BTFSC STATUS,C
0B5E  2B6D  	GOTO	label225
0B5F  3010  	MOVLW 0x10
0B60  0226  	SUBWF FCI_TOSTRI_00017_1_tmp2, W
0B61  00A9  	MOVWF CompTempVar732
0B62  3027  	MOVLW 0x27
0B63  1C03  	BTFSS STATUS,C
0B64  3028  	MOVLW 0x28
0B65  0227  	SUBWF FCI_TOSTRI_00017_1_tmp2+D'1', W
0B66  00AA  	MOVWF CompTempVar733
0B67  0829  	MOVF CompTempVar732, W
0B68  00A6  	MOVWF FCI_TOSTRI_00017_1_tmp2
0B69  082A  	MOVF CompTempVar733, W
0B6A  00A7  	MOVWF FCI_TOSTRI_00017_1_tmp2+D'1'
0B6B  03A5  	DECF FCI_TOSTRI_00017_1_tmp1, F
0B6C  2B5B  	GOTO	label224
0B6D        label225
0B6D  3003  	MOVLW 0x03
0B6E  0221  	SUBWF FCI_TOSTRI_00017_arg_iSrc1+D'1', W
0B6F  1D03  	BTFSS STATUS,Z
0B70  2B73  	GOTO	label226
0B71  30E8  	MOVLW 0xE8
0B72  0220  	SUBWF FCI_TOSTRI_00017_arg_iSrc1, W
0B73        label226
0B73  1C03  	BTFSS STATUS,C
0B74  2BB4  	GOTO	label230
0B75  1BA1  	BTFSC FCI_TOSTRI_00017_arg_iSrc1+D'1',7
0B76  2BB4  	GOTO	label230
0B77  0824  	MOVF FCI_TOSTRI_00017_arg_iDst_len, W
0B78  0228  	SUBWF FCI_TOSTRI_00017_1_idx, W
0B79  1803  	BTFSC STATUS,C
0B7A  2BA2  	GOTO	label229
0B7B  01AE  	CLRF CompTempVar735
0B7C  0826  	MOVF FCI_TOSTRI_00017_1_tmp2, W
0B7D  00A9  	MOVWF __div_16_1_00003_arg_a
0B7E  0827  	MOVF FCI_TOSTRI_00017_1_tmp2+D'1', W
0B7F  00AA  	MOVWF __div_16_1_00003_arg_a+D'1'
0B80  1FA7  	BTFSS FCI_TOSTRI_00017_1_tmp2+D'1',7
0B81  2B88  	GOTO	label227
0B82  09A9  	COMF __div_16_1_00003_arg_a, F
0B83  09AA  	COMF __div_16_1_00003_arg_a+D'1', F
0B84  0AA9  	INCF __div_16_1_00003_arg_a, F
0B85  1903  	BTFSC STATUS,Z
0B86  0AAA  	INCF __div_16_1_00003_arg_a+D'1', F
0B87  0AAE  	INCF CompTempVar735, F
0B88        label227
0B88  30E8  	MOVLW 0xE8
0B89  00AB  	MOVWF __div_16_1_00003_arg_b
0B8A  3003  	MOVLW 0x03
0B8B  00AC  	MOVWF __div_16_1_00003_arg_b+D'1'
0B8C  118A  	BCF PCLATH,3
0B8D  2709  	CALL __div_16_1_00003
0B8E  0832  	MOVF CompTempVarRet243, W
0B8F  00AD  	MOVWF CompTempVar734
0B90  158A  	BSF PCLATH,3
0B91  1C2E  	BTFSS CompTempVar735,0
0B92  2B95  	GOTO	label228
0B93  09AD  	COMF CompTempVar734, F
0B94  0AAD  	INCF CompTempVar734, F
0B95        label228
0B95  082D  	MOVF CompTempVar734, W
0B96  00A5  	MOVWF FCI_TOSTRI_00017_1_tmp1
0B97  3E30  	ADDLW 0x30
0B98  00A9  	MOVWF CompTempVar737
0B99  1383  	BCF STATUS,IRP
0B9A  1823  	BTFSC FCI_TOSTRI_00017_arg_sDst+D'1',0
0B9B  1783  	BSF STATUS,IRP
0B9C  0822  	MOVF FCI_TOSTRI_00017_arg_sDst, W
0B9D  0728  	ADDWF FCI_TOSTRI_00017_1_idx, W
0B9E  0084  	MOVWF FSR
0B9F  0829  	MOVF CompTempVar737, W
0BA0  0080  	MOVWF INDF
0BA1  0AA8  	INCF FCI_TOSTRI_00017_1_idx, F
0BA2        label229
0BA2  0825  	MOVF FCI_TOSTRI_00017_1_tmp1, W
0BA3  3C00  	SUBLW 0x00
0BA4  1803  	BTFSC STATUS,C
0BA5  2BB4  	GOTO	label230
0BA6  30E8  	MOVLW 0xE8
0BA7  0226  	SUBWF FCI_TOSTRI_00017_1_tmp2, W
0BA8  00A9  	MOVWF CompTempVar738
0BA9  3003  	MOVLW 0x03
0BAA  1C03  	BTFSS STATUS,C
0BAB  3004  	MOVLW 0x04
0BAC  0227  	SUBWF FCI_TOSTRI_00017_1_tmp2+D'1', W
0BAD  00AA  	MOVWF CompTempVar739
0BAE  0829  	MOVF CompTempVar738, W
0BAF  00A6  	MOVWF FCI_TOSTRI_00017_1_tmp2
0BB0  082A  	MOVF CompTempVar739, W
0BB1  00A7  	MOVWF FCI_TOSTRI_00017_1_tmp2+D'1'
0BB2  03A5  	DECF FCI_TOSTRI_00017_1_tmp1, F
0BB3  2BA2  	GOTO	label229
0BB4        label230
0BB4  0821  	MOVF FCI_TOSTRI_00017_arg_iSrc1+D'1', W
0BB5  3A80  	XORLW 0x80
0BB6  00A9  	MOVWF CompTempVar740
0BB7  3080  	MOVLW 0x80
0BB8  0229  	SUBWF CompTempVar740, W
0BB9  1D03  	BTFSS STATUS,Z
0BBA  2BBD  	GOTO	label231
0BBB  3064  	MOVLW 0x64
0BBC  0220  	SUBWF FCI_TOSTRI_00017_arg_iSrc1, W
0BBD        label231
0BBD  1C03  	BTFSS STATUS,C
0BBE  2BF6  	GOTO	label235
0BBF  0824  	MOVF FCI_TOSTRI_00017_arg_iDst_len, W
0BC0  0228  	SUBWF FCI_TOSTRI_00017_1_idx, W
0BC1  1803  	BTFSC STATUS,C
0BC2  2BE9  	GOTO	label234
0BC3  01AE  	CLRF CompTempVar742
0BC4  0826  	MOVF FCI_TOSTRI_00017_1_tmp2, W
0BC5  00A9  	MOVWF __div_16_1_00003_arg_a
0BC6  0827  	MOVF FCI_TOSTRI_00017_1_tmp2+D'1', W
0BC7  00AA  	MOVWF __div_16_1_00003_arg_a+D'1'
0BC8  1FA7  	BTFSS FCI_TOSTRI_00017_1_tmp2+D'1',7
0BC9  2BD0  	GOTO	label232
0BCA  09A9  	COMF __div_16_1_00003_arg_a, F
0BCB  09AA  	COMF __div_16_1_00003_arg_a+D'1', F
0BCC  0AA9  	INCF __div_16_1_00003_arg_a, F
0BCD  1903  	BTFSC STATUS,Z
0BCE  0AAA  	INCF __div_16_1_00003_arg_a+D'1', F
0BCF  0AAE  	INCF CompTempVar742, F
0BD0        label232
0BD0  3064  	MOVLW 0x64
0BD1  00AB  	MOVWF __div_16_1_00003_arg_b
0BD2  01AC  	CLRF __div_16_1_00003_arg_b+D'1'
0BD3  118A  	BCF PCLATH,3
0BD4  2709  	CALL __div_16_1_00003
0BD5  0832  	MOVF CompTempVarRet243, W
0BD6  00AD  	MOVWF CompTempVar741
0BD7  158A  	BSF PCLATH,3
0BD8  1C2E  	BTFSS CompTempVar742,0
0BD9  2BDC  	GOTO	label233
0BDA  09AD  	COMF CompTempVar741, F
0BDB  0AAD  	INCF CompTempVar741, F
0BDC        label233
0BDC  082D  	MOVF CompTempVar741, W
0BDD  00A5  	MOVWF FCI_TOSTRI_00017_1_tmp1
0BDE  3E30  	ADDLW 0x30
0BDF  00A9  	MOVWF CompTempVar744
0BE0  1383  	BCF STATUS,IRP
0BE1  1823  	BTFSC FCI_TOSTRI_00017_arg_sDst+D'1',0
0BE2  1783  	BSF STATUS,IRP
0BE3  0822  	MOVF FCI_TOSTRI_00017_arg_sDst, W
0BE4  0728  	ADDWF FCI_TOSTRI_00017_1_idx, W
0BE5  0084  	MOVWF FSR
0BE6  0829  	MOVF CompTempVar744, W
0BE7  0080  	MOVWF INDF
0BE8  0AA8  	INCF FCI_TOSTRI_00017_1_idx, F
0BE9        label234
0BE9  0825  	MOVF FCI_TOSTRI_00017_1_tmp1, W
0BEA  3C00  	SUBLW 0x00
0BEB  1803  	BTFSC STATUS,C
0BEC  2BF6  	GOTO	label235
0BED  3064  	MOVLW 0x64
0BEE  0226  	SUBWF FCI_TOSTRI_00017_1_tmp2, W
0BEF  00A9  	MOVWF CompTempVar745
0BF0  1C03  	BTFSS STATUS,C
0BF1  03A7  	DECF FCI_TOSTRI_00017_1_tmp2+D'1', F
0BF2  0829  	MOVF CompTempVar745, W
0BF3  00A6  	MOVWF FCI_TOSTRI_00017_1_tmp2
0BF4  03A5  	DECF FCI_TOSTRI_00017_1_tmp1, F
0BF5  2BE9  	GOTO	label234
0BF6        label235
0BF6  0821  	MOVF FCI_TOSTRI_00017_arg_iSrc1+D'1', W
0BF7  3A80  	XORLW 0x80
0BF8  00A9  	MOVWF CompTempVar747
0BF9  3080  	MOVLW 0x80
0BFA  0229  	SUBWF CompTempVar747, W
0BFB  1D03  	BTFSS STATUS,Z
0BFC  2BFF  	GOTO	label236
0BFD  300A  	MOVLW 0x0A
0BFE  0220  	SUBWF FCI_TOSTRI_00017_arg_iSrc1, W
0BFF        label236
0BFF  1C03  	BTFSS STATUS,C
0C00  2C38  	GOTO	label240
0C01  0824  	MOVF FCI_TOSTRI_00017_arg_iDst_len, W
0C02  0228  	SUBWF FCI_TOSTRI_00017_1_idx, W
0C03  1803  	BTFSC STATUS,C
0C04  2C2B  	GOTO	label239
0C05  01AE  	CLRF CompTempVar749
0C06  0826  	MOVF FCI_TOSTRI_00017_1_tmp2, W
0C07  00A9  	MOVWF __div_16_1_00003_arg_a
0C08  0827  	MOVF FCI_TOSTRI_00017_1_tmp2+D'1', W
0C09  00AA  	MOVWF __div_16_1_00003_arg_a+D'1'
0C0A  1FA7  	BTFSS FCI_TOSTRI_00017_1_tmp2+D'1',7
0C0B  2C12  	GOTO	label237
0C0C  09A9  	COMF __div_16_1_00003_arg_a, F
0C0D  09AA  	COMF __div_16_1_00003_arg_a+D'1', F
0C0E  0AA9  	INCF __div_16_1_00003_arg_a, F
0C0F  1903  	BTFSC STATUS,Z
0C10  0AAA  	INCF __div_16_1_00003_arg_a+D'1', F
0C11  0AAE  	INCF CompTempVar749, F
0C12        label237
0C12  300A  	MOVLW 0x0A
0C13  00AB  	MOVWF __div_16_1_00003_arg_b
0C14  01AC  	CLRF __div_16_1_00003_arg_b+D'1'
0C15  118A  	BCF PCLATH,3
0C16  2709  	CALL __div_16_1_00003
0C17  0832  	MOVF CompTempVarRet243, W
0C18  00AD  	MOVWF CompTempVar748
0C19  158A  	BSF PCLATH,3
0C1A  1C2E  	BTFSS CompTempVar749,0
0C1B  2C1E  	GOTO	label238
0C1C  09AD  	COMF CompTempVar748, F
0C1D  0AAD  	INCF CompTempVar748, F
0C1E        label238
0C1E  082D  	MOVF CompTempVar748, W
0C1F  00A5  	MOVWF FCI_TOSTRI_00017_1_tmp1
0C20  3E30  	ADDLW 0x30
0C21  00A9  	MOVWF CompTempVar751
0C22  1383  	BCF STATUS,IRP
0C23  1823  	BTFSC FCI_TOSTRI_00017_arg_sDst+D'1',0
0C24  1783  	BSF STATUS,IRP
0C25  0822  	MOVF FCI_TOSTRI_00017_arg_sDst, W
0C26  0728  	ADDWF FCI_TOSTRI_00017_1_idx, W
0C27  0084  	MOVWF FSR
0C28  0829  	MOVF CompTempVar751, W
0C29  0080  	MOVWF INDF
0C2A  0AA8  	INCF FCI_TOSTRI_00017_1_idx, F
0C2B        label239
0C2B  0825  	MOVF FCI_TOSTRI_00017_1_tmp1, W
0C2C  3C00  	SUBLW 0x00
0C2D  1803  	BTFSC STATUS,C
0C2E  2C38  	GOTO	label240
0C2F  300A  	MOVLW 0x0A
0C30  0226  	SUBWF FCI_TOSTRI_00017_1_tmp2, W
0C31  00A9  	MOVWF CompTempVar752
0C32  1C03  	BTFSS STATUS,C
0C33  03A7  	DECF FCI_TOSTRI_00017_1_tmp2+D'1', F
0C34  0829  	MOVF CompTempVar752, W
0C35  00A6  	MOVWF FCI_TOSTRI_00017_1_tmp2
0C36  03A5  	DECF FCI_TOSTRI_00017_1_tmp1, F
0C37  2C2B  	GOTO	label239
0C38        label240
0C38  0824  	MOVF FCI_TOSTRI_00017_arg_iDst_len, W
0C39  0228  	SUBWF FCI_TOSTRI_00017_1_idx, W
0C3A  1803  	BTFSC STATUS,C
0C3B  2C48  	GOTO	label241
0C3C  0826  	MOVF FCI_TOSTRI_00017_1_tmp2, W
0C3D  3E30  	ADDLW 0x30
0C3E  00A9  	MOVWF CompTempVar755
0C3F  1383  	BCF STATUS,IRP
0C40  1823  	BTFSC FCI_TOSTRI_00017_arg_sDst+D'1',0
0C41  1783  	BSF STATUS,IRP
0C42  0822  	MOVF FCI_TOSTRI_00017_arg_sDst, W
0C43  0728  	ADDWF FCI_TOSTRI_00017_1_idx, W
0C44  0084  	MOVWF FSR
0C45  0829  	MOVF CompTempVar755, W
0C46  0080  	MOVWF INDF
0C47  0AA8  	INCF FCI_TOSTRI_00017_1_idx, F
0C48        label241
0C48  0824  	MOVF FCI_TOSTRI_00017_arg_iDst_len, W
0C49  0228  	SUBWF FCI_TOSTRI_00017_1_idx, W
0C4A  1803  	BTFSC STATUS,C
0C4B  2C54  	GOTO	label242
0C4C  1383  	BCF STATUS,IRP
0C4D  1823  	BTFSC FCI_TOSTRI_00017_arg_sDst+D'1',0
0C4E  1783  	BSF STATUS,IRP
0C4F  0822  	MOVF FCI_TOSTRI_00017_arg_sDst, W
0C50  0728  	ADDWF FCI_TOSTRI_00017_1_idx, W
0C51  0084  	MOVWF FSR
0C52  3000  	MOVLW 0x00
0C53  0080  	MOVWF INDF
0C54        label242
0C54  0828  	MOVF FCI_TOSTRI_00017_1_idx, W
0C55  00A9  	MOVWF CompTempVarRet724
0C56  0008  	RETURN
0C57        ; } FCI_TOSTRING function end

	ORG 0x00000C57
0C57        FCI_STRING_00044
0C57        ; { FCI_STRING_TO_FLOAT ; function begin
0C57  01E3  	CLRF FCI_STRING_00044_1_RetVal
0C58  01E4  	CLRF FCI_STRING_00044_1_RetVal+D'1'
0C59  01E5  	CLRF FCI_STRING_00044_1_RetVal+D'2'
0C5A  01E6  	CLRF FCI_STRING_00044_1_RetVal+D'3'
0C5B  01E7  	CLRF FCI_STRING_00044_1_real_divider
0C5C  01E8  	CLRF FCI_STRING_00044_1_real_divider+D'1'
0C5D  3080  	MOVLW 0x80
0C5E  00E9  	MOVWF FCI_STRING_00044_1_real_divider+D'2'
0C5F  303F  	MOVLW 0x3F
0C60  00EA  	MOVWF FCI_STRING_00044_1_real_divider+D'3'
0C61  01EF  	CLRF FCI_STRING_00044_1_idx
0C62  01F0  	CLRF FCI_STRING_00044_1_idx2
0C63  01F1  	CLRF FCI_STRING_00044_1_offset
0C64  01F2  	CLRF FCI_STRING_00044_1_bNegative
0C65  1383  	BCF STATUS,IRP
0C66  1861  	BTFSC FCI_STRING_00044_arg_String+D'1',0
0C67  1783  	BSF STATUS,IRP
0C68  0860  	MOVF FCI_STRING_00044_arg_String, W
0C69  0084  	MOVWF FSR
0C6A  3000  	MOVLW 0x00
0C6B  0784  	ADDWF FSR, F
0C6C  0800  	MOVF INDF, W
0C6D  3A2D  	XORLW 0x2D
0C6E  1D03  	BTFSS STATUS,Z
0C6F  2C73  	GOTO	label243
0C70  3001  	MOVLW 0x01
0C71  00F2  	MOVWF FCI_STRING_00044_1_bNegative
0C72  00F1  	MOVWF FCI_STRING_00044_1_offset
0C73        label243
0C73  0871  	MOVF FCI_STRING_00044_1_offset, W
0C74  00EF  	MOVWF FCI_STRING_00044_1_idx
0C75        label244
0C75  0862  	MOVF FCI_STRING_00044_arg_MSZ_String, W
0C76  026F  	SUBWF FCI_STRING_00044_1_idx, W
0C77  1803  	BTFSC STATUS,C
0C78  2C85  	GOTO	label245
0C79  1383  	BCF STATUS,IRP
0C7A  1861  	BTFSC FCI_STRING_00044_arg_String+D'1',0
0C7B  1783  	BSF STATUS,IRP
0C7C  0860  	MOVF FCI_STRING_00044_arg_String, W
0C7D  076F  	ADDWF FCI_STRING_00044_1_idx, W
0C7E  0084  	MOVWF FSR
0C7F  0800  	MOVF INDF, W
0C80  3A2E  	XORLW 0x2E
0C81  1903  	BTFSC STATUS,Z
0C82  2C85  	GOTO	label245
0C83  0AEF  	INCF FCI_STRING_00044_1_idx, F
0C84  2C75  	GOTO	label244
0C85        label245
0C85  0860  	MOVF FCI_STRING_00044_arg_String, W
0C86  1683  	BSF STATUS, RP0
0C87  00A0  	MOVWF FCI_STRING_00043_arg_String
0C88  1283  	BCF STATUS, RP0
0C89  0861  	MOVF FCI_STRING_00044_arg_String+D'1', W
0C8A  1683  	BSF STATUS, RP0
0C8B  00A1  	MOVWF FCI_STRING_00043_arg_String+D'1'
0C8C  1283  	BCF STATUS, RP0
0C8D  086F  	MOVF FCI_STRING_00044_1_idx, W
0C8E  1683  	BSF STATUS, RP0
0C8F  00A2  	MOVWF FCI_STRING_00043_arg_MSZ_String
0C90  118A  	BCF PCLATH,3
0C91  273B  	CALL FCI_STRING_00043
0C92  0827  	MOVF CompTempVarRet2146, W
0C93  1283  	BCF STATUS, RP0
0C94  00EB  	MOVWF FCI_STRING_00044_1_whole
0C95  1683  	BSF STATUS, RP0
0C96  0828  	MOVF CompTempVarRet2146+D'1', W
0C97  1283  	BCF STATUS, RP0
0C98  00EC  	MOVWF FCI_STRING_00044_1_whole+D'1'
0C99  0862  	MOVF FCI_STRING_00044_arg_MSZ_String, W
0C9A  066F  	XORWF FCI_STRING_00044_1_idx, W
0C9B  158A  	BSF PCLATH,3
0C9C  1D03  	BTFSS STATUS,Z
0C9D  2CC8  	GOTO	label247
0C9E  086B  	MOVF FCI_STRING_00044_1_whole, W
0C9F  1683  	BSF STATUS, RP0
0CA0  00A0  	MOVWF float32_from_int32_arg_a
0CA1  1283  	BCF STATUS, RP0
0CA2  086C  	MOVF FCI_STRING_00044_1_whole+D'1', W
0CA3  1683  	BSF STATUS, RP0
0CA4  00A1  	MOVWF float32_from_int32_arg_a+D'1'
0CA5  01A2  	CLRF float32_from_int32_arg_a+D'2'
0CA6  01A3  	CLRF float32_from_int32_arg_a+D'3'
0CA7  1283  	BCF STATUS, RP0
0CA8  1FEC  	BTFSS FCI_STRING_00044_1_whole+D'1',7
0CA9  2CAD  	GOTO	label246
0CAA  1683  	BSF STATUS, RP0
0CAB  03A2  	DECF float32_from_int32_arg_a+D'2', F
0CAC  03A3  	DECF float32_from_int32_arg_a+D'3', F
0CAD        label246
0CAD  1683  	BSF STATUS, RP0
0CAE  118A  	BCF PCLATH,3
0CAF  24C1  	CALL float32_from_int32
0CB0  0828  	MOVF CompTempVarRet813, W
0CB1  1283  	BCF STATUS, RP0
0CB2  00E3  	MOVWF FCI_STRING_00044_1_RetVal
0CB3  1683  	BSF STATUS, RP0
0CB4  0829  	MOVF CompTempVarRet813+D'1', W
0CB5  1283  	BCF STATUS, RP0
0CB6  00E4  	MOVWF FCI_STRING_00044_1_RetVal+D'1'
0CB7  1683  	BSF STATUS, RP0
0CB8  082A  	MOVF CompTempVarRet813+D'2', W
0CB9  1283  	BCF STATUS, RP0
0CBA  00E5  	MOVWF FCI_STRING_00044_1_RetVal+D'2'
0CBB  1683  	BSF STATUS, RP0
0CBC  082B  	MOVF CompTempVarRet813+D'3', W
0CBD  1283  	BCF STATUS, RP0
0CBE  00E6  	MOVWF FCI_STRING_00044_1_RetVal+D'3'
0CBF  0863  	MOVF FCI_STRING_00044_1_RetVal, W
0CC0  00FB  	MOVWF CompTempVarRet2161
0CC1  0864  	MOVF FCI_STRING_00044_1_RetVal+D'1', W
0CC2  00FC  	MOVWF CompTempVarRet2161+D'1'
0CC3  0865  	MOVF FCI_STRING_00044_1_RetVal+D'2', W
0CC4  00FD  	MOVWF CompTempVarRet2161+D'2'
0CC5  0866  	MOVF FCI_STRING_00044_1_RetVal+D'3', W
0CC6  00FE  	MOVWF CompTempVarRet2161+D'3'
0CC7  0008  	RETURN
0CC8        label247
0CC8  0A6F  	INCF FCI_STRING_00044_1_idx, W
0CC9  00F1  	MOVWF FCI_STRING_00044_1_offset
0CCA  0871  	MOVF FCI_STRING_00044_1_offset, W
0CCB  00EF  	MOVWF FCI_STRING_00044_1_idx
0CCC        label248
0CCC  0862  	MOVF FCI_STRING_00044_arg_MSZ_String, W
0CCD  026F  	SUBWF FCI_STRING_00044_1_idx, W
0CCE  1803  	BTFSC STATUS,C
0CCF  2D25  	GOTO	label249
0CD0  1383  	BCF STATUS,IRP
0CD1  1861  	BTFSC FCI_STRING_00044_arg_String+D'1',0
0CD2  1783  	BSF STATUS,IRP
0CD3  0860  	MOVF FCI_STRING_00044_arg_String, W
0CD4  076F  	ADDWF FCI_STRING_00044_1_idx, W
0CD5  0084  	MOVWF FSR
0CD6  3030  	MOVLW 0x30
0CD7  0200  	SUBWF INDF, W
0CD8  1C03  	BTFSS STATUS,C
0CD9  2D25  	GOTO	label249
0CDA  1383  	BCF STATUS,IRP
0CDB  1861  	BTFSC FCI_STRING_00044_arg_String+D'1',0
0CDC  1783  	BSF STATUS,IRP
0CDD  0860  	MOVF FCI_STRING_00044_arg_String, W
0CDE  076F  	ADDWF FCI_STRING_00044_1_idx, W
0CDF  0084  	MOVWF FSR
0CE0  0800  	MOVF INDF, W
0CE1  3C39  	SUBLW 0x39
0CE2  1C03  	BTFSS STATUS,C
0CE3  2D25  	GOTO	label249
0CE4  1383  	BCF STATUS,IRP
0CE5  1861  	BTFSC FCI_STRING_00044_arg_String+D'1',0
0CE6  1783  	BSF STATUS,IRP
0CE7  0860  	MOVF FCI_STRING_00044_arg_String, W
0CE8  0084  	MOVWF FSR
0CE9  086F  	MOVF FCI_STRING_00044_1_idx, W
0CEA  1683  	BSF STATUS, RP0
0CEB  00A0  	MOVWF CompTempVar2172
0CEC  0820  	MOVF CompTempVar2172, W
0CED  0784  	ADDWF FSR, F
0CEE  0800  	MOVF INDF, W
0CEF  00A1  	MOVWF CompTempVar2173
0CF0  1383  	BCF	STATUS,IRP
0CF1  3073  	MOVLW LOW(FCI_STRING_00044_1_Comp_String+D'0')
0CF2  0084  	MOVWF FSR
0CF3  0871  	MOVF FCI_STRING_00044_1_offset, W
0CF4  1283  	BCF STATUS, RP0
0CF5  026F  	SUBWF FCI_STRING_00044_1_idx, W
0CF6  0784  	ADDWF FSR, F
0CF7  1683  	BSF STATUS, RP0
0CF8  0821  	MOVF CompTempVar2173, W
0CF9  0080  	MOVWF INDF
0CFA  1283  	BCF STATUS, RP0
0CFB  0867  	MOVF FCI_STRING_00044_1_real_divider, W
0CFC  1683  	BSF STATUS, RP0
0CFD  00A0  	MOVWF float32_mul_arg_a
0CFE  1283  	BCF STATUS, RP0
0CFF  0868  	MOVF FCI_STRING_00044_1_real_divider+D'1', W
0D00  1683  	BSF STATUS, RP0
0D01  00A1  	MOVWF float32_mul_arg_a+D'1'
0D02  1283  	BCF STATUS, RP0
0D03  0869  	MOVF FCI_STRING_00044_1_real_divider+D'2', W
0D04  1683  	BSF STATUS, RP0
0D05  00A2  	MOVWF float32_mul_arg_a+D'2'
0D06  1283  	BCF STATUS, RP0
0D07  086A  	MOVF FCI_STRING_00044_1_real_divider+D'3', W
0D08  1683  	BSF STATUS, RP0
0D09  00A3  	MOVWF float32_mul_arg_a+D'3'
0D0A  303D  	MOVLW 0x3D
0D0B  00A7  	MOVWF float32_mul_arg_b+D'3'
0D0C  30CC  	MOVLW 0xCC
0D0D  00A5  	MOVWF float32_mul_arg_b+D'1'
0D0E  00A6  	MOVWF float32_mul_arg_b+D'2'
0D0F  30CD  	MOVLW 0xCD
0D10  00A4  	MOVWF float32_mul_arg_b
0D11  118A  	BCF PCLATH,3
0D12  231A  	CALL float32_mul
0D13  0832  	MOVF CompTempVarRet1067, W
0D14  1283  	BCF STATUS, RP0
0D15  00E7  	MOVWF FCI_STRING_00044_1_real_divider
0D16  1683  	BSF STATUS, RP0
0D17  0833  	MOVF CompTempVarRet1067+D'1', W
0D18  1283  	BCF STATUS, RP0
0D19  00E8  	MOVWF FCI_STRING_00044_1_real_divider+D'1'
0D1A  1683  	BSF STATUS, RP0
0D1B  0834  	MOVF CompTempVarRet1067+D'2', W
0D1C  1283  	BCF STATUS, RP0
0D1D  00E9  	MOVWF FCI_STRING_00044_1_real_divider+D'2'
0D1E  1683  	BSF STATUS, RP0
0D1F  0835  	MOVF CompTempVarRet1067+D'3', W
0D20  1283  	BCF STATUS, RP0
0D21  00EA  	MOVWF FCI_STRING_00044_1_real_divider+D'3'
0D22  0AEF  	INCF FCI_STRING_00044_1_idx, F
0D23  158A  	BSF PCLATH,3
0D24  2CCC  	GOTO	label248
0D25        label249
0D25  3000  	MOVLW HIGH(FCI_STRING_00044_1_Comp_String+D'0')
0D26  1683  	BSF STATUS, RP0
0D27  00A1  	MOVWF FCI_STRING_00043_arg_String+D'1'
0D28  3073  	MOVLW LOW(FCI_STRING_00044_1_Comp_String+D'0')
0D29  00A0  	MOVWF FCI_STRING_00043_arg_String
0D2A  0871  	MOVF FCI_STRING_00044_1_offset, W
0D2B  1283  	BCF STATUS, RP0
0D2C  026F  	SUBWF FCI_STRING_00044_1_idx, W
0D2D  1683  	BSF STATUS, RP0
0D2E  00A2  	MOVWF FCI_STRING_00043_arg_MSZ_String
0D2F  118A  	BCF PCLATH,3
0D30  273B  	CALL FCI_STRING_00043
0D31  0827  	MOVF CompTempVarRet2146, W
0D32  1283  	BCF STATUS, RP0
0D33  00ED  	MOVWF FCI_STRING_00044_1_real
0D34  1683  	BSF STATUS, RP0
0D35  0828  	MOVF CompTempVarRet2146+D'1', W
0D36  1283  	BCF STATUS, RP0
0D37  00EE  	MOVWF FCI_STRING_00044_1_real+D'1'
0D38  086D  	MOVF FCI_STRING_00044_1_real, W
0D39  1683  	BSF STATUS, RP0
0D3A  00A0  	MOVWF float32_from_int32_arg_a
0D3B  1283  	BCF STATUS, RP0
0D3C  086E  	MOVF FCI_STRING_00044_1_real+D'1', W
0D3D  1683  	BSF STATUS, RP0
0D3E  00A1  	MOVWF float32_from_int32_arg_a+D'1'
0D3F  01A2  	CLRF float32_from_int32_arg_a+D'2'
0D40  01A3  	CLRF float32_from_int32_arg_a+D'3'
0D41  1283  	BCF STATUS, RP0
0D42  158A  	BSF PCLATH,3
0D43  1FEE  	BTFSS FCI_STRING_00044_1_real+D'1',7
0D44  2D48  	GOTO	label250
0D45  1683  	BSF STATUS, RP0
0D46  03A2  	DECF float32_from_int32_arg_a+D'2', F
0D47  03A3  	DECF float32_from_int32_arg_a+D'3', F
0D48        label250
0D48  1683  	BSF STATUS, RP0
0D49  118A  	BCF PCLATH,3
0D4A  24C1  	CALL float32_from_int32
0D4B  0828  	MOVF CompTempVarRet813, W
0D4C  1283  	BCF STATUS, RP0
0D4D  00E3  	MOVWF FCI_STRING_00044_1_RetVal
0D4E  1683  	BSF STATUS, RP0
0D4F  0829  	MOVF CompTempVarRet813+D'1', W
0D50  1283  	BCF STATUS, RP0
0D51  00E4  	MOVWF FCI_STRING_00044_1_RetVal+D'1'
0D52  1683  	BSF STATUS, RP0
0D53  082A  	MOVF CompTempVarRet813+D'2', W
0D54  1283  	BCF STATUS, RP0
0D55  00E5  	MOVWF FCI_STRING_00044_1_RetVal+D'2'
0D56  1683  	BSF STATUS, RP0
0D57  082B  	MOVF CompTempVarRet813+D'3', W
0D58  1283  	BCF STATUS, RP0
0D59  00E6  	MOVWF FCI_STRING_00044_1_RetVal+D'3'
0D5A  0863  	MOVF FCI_STRING_00044_1_RetVal, W
0D5B  1683  	BSF STATUS, RP0
0D5C  00A0  	MOVWF float32_mul_arg_a
0D5D  1283  	BCF STATUS, RP0
0D5E  0864  	MOVF FCI_STRING_00044_1_RetVal+D'1', W
0D5F  1683  	BSF STATUS, RP0
0D60  00A1  	MOVWF float32_mul_arg_a+D'1'
0D61  1283  	BCF STATUS, RP0
0D62  0865  	MOVF FCI_STRING_00044_1_RetVal+D'2', W
0D63  1683  	BSF STATUS, RP0
0D64  00A2  	MOVWF float32_mul_arg_a+D'2'
0D65  1283  	BCF STATUS, RP0
0D66  0866  	MOVF FCI_STRING_00044_1_RetVal+D'3', W
0D67  1683  	BSF STATUS, RP0
0D68  00A3  	MOVWF float32_mul_arg_a+D'3'
0D69  1283  	BCF STATUS, RP0
0D6A  0867  	MOVF FCI_STRING_00044_1_real_divider, W
0D6B  1683  	BSF STATUS, RP0
0D6C  00A4  	MOVWF float32_mul_arg_b
0D6D  1283  	BCF STATUS, RP0
0D6E  0868  	MOVF FCI_STRING_00044_1_real_divider+D'1', W
0D6F  1683  	BSF STATUS, RP0
0D70  00A5  	MOVWF float32_mul_arg_b+D'1'
0D71  1283  	BCF STATUS, RP0
0D72  0869  	MOVF FCI_STRING_00044_1_real_divider+D'2', W
0D73  1683  	BSF STATUS, RP0
0D74  00A6  	MOVWF float32_mul_arg_b+D'2'
0D75  1283  	BCF STATUS, RP0
0D76  086A  	MOVF FCI_STRING_00044_1_real_divider+D'3', W
0D77  1683  	BSF STATUS, RP0
0D78  00A7  	MOVWF float32_mul_arg_b+D'3'
0D79  231A  	CALL float32_mul
0D7A  0832  	MOVF CompTempVarRet1067, W
0D7B  1283  	BCF STATUS, RP0
0D7C  00E3  	MOVWF FCI_STRING_00044_1_RetVal
0D7D  1683  	BSF STATUS, RP0
0D7E  0833  	MOVF CompTempVarRet1067+D'1', W
0D7F  1283  	BCF STATUS, RP0
0D80  00E4  	MOVWF FCI_STRING_00044_1_RetVal+D'1'
0D81  1683  	BSF STATUS, RP0
0D82  0834  	MOVF CompTempVarRet1067+D'2', W
0D83  1283  	BCF STATUS, RP0
0D84  00E5  	MOVWF FCI_STRING_00044_1_RetVal+D'2'
0D85  1683  	BSF STATUS, RP0
0D86  0835  	MOVF CompTempVarRet1067+D'3', W
0D87  1283  	BCF STATUS, RP0
0D88  00E6  	MOVWF FCI_STRING_00044_1_RetVal+D'3'
0D89  086B  	MOVF FCI_STRING_00044_1_whole, W
0D8A  1683  	BSF STATUS, RP0
0D8B  00A0  	MOVWF float32_from_int32_arg_a
0D8C  1283  	BCF STATUS, RP0
0D8D  086C  	MOVF FCI_STRING_00044_1_whole+D'1', W
0D8E  1683  	BSF STATUS, RP0
0D8F  00A1  	MOVWF float32_from_int32_arg_a+D'1'
0D90  01A2  	CLRF float32_from_int32_arg_a+D'2'
0D91  01A3  	CLRF float32_from_int32_arg_a+D'3'
0D92  1283  	BCF STATUS, RP0
0D93  158A  	BSF PCLATH,3
0D94  1FEC  	BTFSS FCI_STRING_00044_1_whole+D'1',7
0D95  2D99  	GOTO	label251
0D96  1683  	BSF STATUS, RP0
0D97  03A2  	DECF float32_from_int32_arg_a+D'2', F
0D98  03A3  	DECF float32_from_int32_arg_a+D'3', F
0D99        label251
0D99  1683  	BSF STATUS, RP0
0D9A  118A  	BCF PCLATH,3
0D9B  24C1  	CALL float32_from_int32
0D9C  0828  	MOVF CompTempVarRet813, W
0D9D  1283  	BCF STATUS, RP0
0D9E  00E7  	MOVWF FCI_STRING_00044_1_real_divider
0D9F  1683  	BSF STATUS, RP0
0DA0  0829  	MOVF CompTempVarRet813+D'1', W
0DA1  1283  	BCF STATUS, RP0
0DA2  00E8  	MOVWF FCI_STRING_00044_1_real_divider+D'1'
0DA3  1683  	BSF STATUS, RP0
0DA4  082A  	MOVF CompTempVarRet813+D'2', W
0DA5  1283  	BCF STATUS, RP0
0DA6  00E9  	MOVWF FCI_STRING_00044_1_real_divider+D'2'
0DA7  1683  	BSF STATUS, RP0
0DA8  082B  	MOVF CompTempVarRet813+D'3', W
0DA9  1283  	BCF STATUS, RP0
0DAA  00EA  	MOVWF FCI_STRING_00044_1_real_divider+D'3'
0DAB  0863  	MOVF FCI_STRING_00044_1_RetVal, W
0DAC  1683  	BSF STATUS, RP0
0DAD  00A0  	MOVWF float32_addsub_arg_a
0DAE  1283  	BCF STATUS, RP0
0DAF  0864  	MOVF FCI_STRING_00044_1_RetVal+D'1', W
0DB0  1683  	BSF STATUS, RP0
0DB1  00A1  	MOVWF float32_addsub_arg_a+D'1'
0DB2  1283  	BCF STATUS, RP0
0DB3  0865  	MOVF FCI_STRING_00044_1_RetVal+D'2', W
0DB4  1683  	BSF STATUS, RP0
0DB5  00A2  	MOVWF float32_addsub_arg_a+D'2'
0DB6  1283  	BCF STATUS, RP0
0DB7  0866  	MOVF FCI_STRING_00044_1_RetVal+D'3', W
0DB8  1683  	BSF STATUS, RP0
0DB9  00A3  	MOVWF float32_addsub_arg_a+D'3'
0DBA  1283  	BCF STATUS, RP0
0DBB  0867  	MOVF FCI_STRING_00044_1_real_divider, W
0DBC  1683  	BSF STATUS, RP0
0DBD  00A4  	MOVWF float32_addsub_arg_b
0DBE  1283  	BCF STATUS, RP0
0DBF  0868  	MOVF FCI_STRING_00044_1_real_divider+D'1', W
0DC0  1683  	BSF STATUS, RP0
0DC1  00A5  	MOVWF float32_addsub_arg_b+D'1'
0DC2  1283  	BCF STATUS, RP0
0DC3  0869  	MOVF FCI_STRING_00044_1_real_divider+D'2', W
0DC4  1683  	BSF STATUS, RP0
0DC5  00A6  	MOVWF float32_addsub_arg_b+D'2'
0DC6  1283  	BCF STATUS, RP0
0DC7  086A  	MOVF FCI_STRING_00044_1_real_divider+D'3', W
0DC8  1683  	BSF STATUS, RP0
0DC9  00A7  	MOVWF float32_addsub_arg_b+D'3'
0DCA  01A8  	CLRF float32_addsub_arg_subtract
0DCB  253C  	CALL float32_addsub
0DCC  0830  	MOVF CompTempVarRet1019, W
0DCD  1283  	BCF STATUS, RP0
0DCE  00E3  	MOVWF FCI_STRING_00044_1_RetVal
0DCF  1683  	BSF STATUS, RP0
0DD0  0831  	MOVF CompTempVarRet1019+D'1', W
0DD1  1283  	BCF STATUS, RP0
0DD2  00E4  	MOVWF FCI_STRING_00044_1_RetVal+D'1'
0DD3  1683  	BSF STATUS, RP0
0DD4  0832  	MOVF CompTempVarRet1019+D'2', W
0DD5  1283  	BCF STATUS, RP0
0DD6  00E5  	MOVWF FCI_STRING_00044_1_RetVal+D'2'
0DD7  1683  	BSF STATUS, RP0
0DD8  0833  	MOVF CompTempVarRet1019+D'3', W
0DD9  1283  	BCF STATUS, RP0
0DDA  00E6  	MOVWF FCI_STRING_00044_1_RetVal+D'3'
0DDB  08F2  	MOVF FCI_STRING_00044_1_bNegative, F
0DDC  158A  	BSF PCLATH,3
0DDD  1903  	BTFSC STATUS,Z
0DDE  2E07  	GOTO	label252
0DDF  1683  	BSF STATUS, RP0
0DE0  01A0  	CLRF float32_addsub_arg_a
0DE1  01A1  	CLRF float32_addsub_arg_a+D'1'
0DE2  01A2  	CLRF float32_addsub_arg_a+D'2'
0DE3  01A3  	CLRF float32_addsub_arg_a+D'3'
0DE4  1283  	BCF STATUS, RP0
0DE5  0863  	MOVF FCI_STRING_00044_1_RetVal, W
0DE6  1683  	BSF STATUS, RP0
0DE7  00A4  	MOVWF float32_addsub_arg_b
0DE8  1283  	BCF STATUS, RP0
0DE9  0864  	MOVF FCI_STRING_00044_1_RetVal+D'1', W
0DEA  1683  	BSF STATUS, RP0
0DEB  00A5  	MOVWF float32_addsub_arg_b+D'1'
0DEC  1283  	BCF STATUS, RP0
0DED  0865  	MOVF FCI_STRING_00044_1_RetVal+D'2', W
0DEE  1683  	BSF STATUS, RP0
0DEF  00A6  	MOVWF float32_addsub_arg_b+D'2'
0DF0  1283  	BCF STATUS, RP0
0DF1  0866  	MOVF FCI_STRING_00044_1_RetVal+D'3', W
0DF2  1683  	BSF STATUS, RP0
0DF3  00A7  	MOVWF float32_addsub_arg_b+D'3'
0DF4  3001  	MOVLW 0x01
0DF5  00A8  	MOVWF float32_addsub_arg_subtract
0DF6  118A  	BCF PCLATH,3
0DF7  253C  	CALL float32_addsub
0DF8  0830  	MOVF CompTempVarRet1019, W
0DF9  1283  	BCF STATUS, RP0
0DFA  00E3  	MOVWF FCI_STRING_00044_1_RetVal
0DFB  1683  	BSF STATUS, RP0
0DFC  0831  	MOVF CompTempVarRet1019+D'1', W
0DFD  1283  	BCF STATUS, RP0
0DFE  00E4  	MOVWF FCI_STRING_00044_1_RetVal+D'1'
0DFF  1683  	BSF STATUS, RP0
0E00  0832  	MOVF CompTempVarRet1019+D'2', W
0E01  1283  	BCF STATUS, RP0
0E02  00E5  	MOVWF FCI_STRING_00044_1_RetVal+D'2'
0E03  1683  	BSF STATUS, RP0
0E04  0833  	MOVF CompTempVarRet1019+D'3', W
0E05  1283  	BCF STATUS, RP0
0E06  00E6  	MOVWF FCI_STRING_00044_1_RetVal+D'3'
0E07        label252
0E07  0863  	MOVF FCI_STRING_00044_1_RetVal, W
0E08  00FB  	MOVWF CompTempVarRet2161
0E09  0864  	MOVF FCI_STRING_00044_1_RetVal+D'1', W
0E0A  00FC  	MOVWF CompTempVarRet2161+D'1'
0E0B  0865  	MOVF FCI_STRING_00044_1_RetVal+D'2', W
0E0C  00FD  	MOVWF CompTempVarRet2161+D'2'
0E0D  0866  	MOVF FCI_STRING_00044_1_RetVal+D'3', W
0E0E  00FE  	MOVWF CompTempVarRet2161+D'3'
0E0F  0008  	RETURN
0E10        ; } FCI_STRING_TO_FLOAT function end

	ORG 0x00000E10
0E10        FCD_RS2320_00048
0E10        ; { FCD_RS2320_ReceiveRS232String ; function begin
0E10  0864  	MOVF FCD_RS2320_00048_arg_NumBytes, W
0E11  0262  	SUBWF FCD_RS2320_00048_arg_FCR_R_00049, W
0E12  1803  	BTFSC STATUS,C
0E13  2E16  	GOTO	label253
0E14  0862  	MOVF FCD_RS2320_00048_arg_FCR_R_00049, W
0E15  00E4  	MOVWF FCD_RS2320_00048_arg_NumBytes
0E16        label253
0E16  01E5  	CLRF FCD_RS2320_00048_1_idx
0E17        label254
0E17  0864  	MOVF FCD_RS2320_00048_arg_NumBytes, W
0E18  0265  	SUBWF FCD_RS2320_00048_1_idx, W
0E19  1803  	BTFSC STATUS,C
0E1A  2E3A  	GOTO	label257
0E1B  0863  	MOVF FCD_RS2320_00048_arg_nTimeout, W
0E1C  00E8  	MOVWF FCD_RS2320_00064_arg_nTimeout
0E1D  01E9  	CLRF FCD_RS2320_00064_arg_nTimeout+D'1'
0E1E  118A  	BCF PCLATH,3
0E1F  2790  	CALL FCD_RS2320_00064
0E20  0873  	MOVF CompTempVarRet2276, W
0E21  00E6  	MOVWF FCD_RS2320_00048_1_in
0E22  0874  	MOVF CompTempVarRet2276+D'1', W
0E23  00E7  	MOVWF FCD_RS2320_00048_1_in+D'1'
0E24  30FF  	MOVLW 0xFF
0E25  0266  	SUBWF FCD_RS2320_00048_1_in, W
0E26  0867  	MOVF FCD_RS2320_00048_1_in+D'1', W
0E27  158A  	BSF PCLATH,3
0E28  1803  	BTFSC STATUS,C
0E29  2E2C  	GOTO	label255
0E2A  1903  	BTFSC STATUS,Z
0E2B  2E2E  	GOTO	label256
0E2C        label255
0E2C  1FE7  	BTFSS FCD_RS2320_00048_1_in+D'1',7
0E2D  2E3A  	GOTO	label257
0E2E        label256
0E2E  0866  	MOVF FCD_RS2320_00048_1_in, W
0E2F  00E8  	MOVWF CompTempVar2223
0E30  1383  	BCF STATUS,IRP
0E31  1861  	BTFSC FCD_RS2320_00048_arg_FCR_RETVAL+D'1',0
0E32  1783  	BSF STATUS,IRP
0E33  0860  	MOVF FCD_RS2320_00048_arg_FCR_RETVAL, W
0E34  0765  	ADDWF FCD_RS2320_00048_1_idx, W
0E35  0084  	MOVWF FSR
0E36  0868  	MOVF CompTempVar2223, W
0E37  0080  	MOVWF INDF
0E38  0AE5  	INCF FCD_RS2320_00048_1_idx, F
0E39  2E17  	GOTO	label254
0E3A        label257
0E3A  0862  	MOVF FCD_RS2320_00048_arg_FCR_R_00049, W
0E3B  0265  	SUBWF FCD_RS2320_00048_1_idx, W
0E3C  1803  	BTFSC STATUS,C
0E3D  0008  	RETURN
0E3E  1383  	BCF STATUS,IRP
0E3F  1861  	BTFSC FCD_RS2320_00048_arg_FCR_RETVAL+D'1',0
0E40  1783  	BSF STATUS,IRP
0E41  0860  	MOVF FCD_RS2320_00048_arg_FCR_RETVAL, W
0E42  0765  	ADDWF FCD_RS2320_00048_1_idx, W
0E43  0084  	MOVWF FSR
0E44  3000  	MOVLW 0x00
0E45  0080  	MOVWF INDF
0E46  0008  	RETURN
0E47        ; } FCD_RS2320_ReceiveRS232String function end

	ORG 0x00000E47
0E47        FCD_LCDDis_0004C
0E47        ; { FCD_LCDDisplay0_Cursor ; function begin
0E47  08E1  	MOVF FCD_LCDDis_0004C_arg_y, F
0E48  1D03  	BTFSS STATUS,Z
0E49  2E4D  	GOTO	label258
0E4A  3080  	MOVLW 0x80
0E4B  00E1  	MOVWF FCD_LCDDis_0004C_arg_y
0E4C  2E4F  	GOTO	label259
0E4D        label258
0E4D  30C0  	MOVLW 0xC0
0E4E  00E1  	MOVWF FCD_LCDDis_0004C_arg_y
0E4F        label259
0E4F  0860  	MOVF FCD_LCDDis_0004C_arg_x, W
0E50  0761  	ADDWF FCD_LCDDis_0004C_arg_y, W
0E51  00F3  	MOVWF FCD_LCDDis_0004D_arg_in
0E52  01F4  	CLRF FCD_LCDDis_0004D_arg_mask
0E53  118A  	BCF PCLATH,3
0E54  27E9  	CALL FCD_LCDDis_0004D
0E55  3002  	MOVLW 0x02
0E56  00E2  	MOVWF Wdt_Delay__00047_arg_delay
0E57  01E3  	CLRF Wdt_Delay__00047_arg_delay+D'1'
0E58  2728  	CALL Wdt_Delay__00047
0E59  0008  	RETURN
0E5A        ; } FCD_LCDDisplay0_Cursor function end

	ORG 0x00000E5A
0E5A        FCD_LCDDis_0004B
0E5A        ; { FCD_LCDDisplay0_PrintString ; function begin
0E5A  01F2  	CLRF FCD_LCDDis_0004B_1_idx
0E5B  01F2  	CLRF FCD_LCDDis_0004B_1_idx
0E5C        label260
0E5C  0871  	MOVF FCD_LCDDis_0004B_arg_MSZ_String, W
0E5D  0272  	SUBWF FCD_LCDDis_0004B_1_idx, W
0E5E  1803  	BTFSC STATUS,C
0E5F  0008  	RETURN
0E60  1383  	BCF STATUS,IRP
0E61  1283  	BCF STATUS, RP0
0E62  1303  	BCF STATUS, RP1
0E63  1861  	BTFSC FCD_LCDDis_0004B_arg_String+D'1',0
0E64  1783  	BSF STATUS,IRP
0E65  0860  	MOVF FCD_LCDDis_0004B_arg_String, W
0E66  0772  	ADDWF FCD_LCDDis_0004B_1_idx, W
0E67  0084  	MOVWF FSR
0E68  0880  	MOVF INDF, F
0E69  1903  	BTFSC STATUS,Z
0E6A  0008  	RETURN
0E6B  1383  	BCF STATUS,IRP
0E6C  1861  	BTFSC FCD_LCDDis_0004B_arg_String+D'1',0
0E6D  1783  	BSF STATUS,IRP
0E6E  0860  	MOVF FCD_LCDDis_0004B_arg_String, W
0E6F  0772  	ADDWF FCD_LCDDis_0004B_1_idx, W
0E70  0084  	MOVWF FSR
0E71  0800  	MOVF INDF, W
0E72  00F3  	MOVWF FCD_LCDDis_0004D_arg_in
0E73  3010  	MOVLW 0x10
0E74  00F4  	MOVWF FCD_LCDDis_0004D_arg_mask
0E75  118A  	BCF PCLATH,3
0E76  27E9  	CALL FCD_LCDDis_0004D
0E77  0AF2  	INCF FCD_LCDDis_0004B_1_idx, F
0E78  158A  	BSF PCLATH,3
0E79  2E5C  	GOTO	label260
0E7A        ; } FCD_LCDDisplay0_PrintString function end

	ORG 0x00000E7A
0E7A        FCD_LCDDis_0004A
0E7A        ; { FCD_LCDDisplay0_Clear ; function begin
0E7A  3001  	MOVLW 0x01
0E7B  00F3  	MOVWF FCD_LCDDis_0004D_arg_in
0E7C  01F4  	CLRF FCD_LCDDis_0004D_arg_mask
0E7D  118A  	BCF PCLATH,3
0E7E  27E9  	CALL FCD_LCDDis_0004D
0E7F  3002  	MOVLW 0x02
0E80  00E2  	MOVWF Wdt_Delay__00047_arg_delay
0E81  01E3  	CLRF Wdt_Delay__00047_arg_delay+D'1'
0E82  2728  	CALL Wdt_Delay__00047
0E83  3002  	MOVLW 0x02
0E84  00F3  	MOVWF FCD_LCDDis_0004D_arg_in
0E85  01F4  	CLRF FCD_LCDDis_0004D_arg_mask
0E86  27E9  	CALL FCD_LCDDis_0004D
0E87  3002  	MOVLW 0x02
0E88  00E2  	MOVWF Wdt_Delay__00047_arg_delay
0E89  01E3  	CLRF Wdt_Delay__00047_arg_delay+D'1'
0E8A  2728  	CALL Wdt_Delay__00047
0E8B  0008  	RETURN
0E8C        ; } FCD_LCDDisplay0_Clear function end

	ORG 0x00000E8C
0E8C        FCD_ADC1_R_0005E
0E8C        ; { FCD_ADC1_ReadAsInt ; function begin
0E8C  202C  	CALL FCD_ADC1_S_0005C
0E8D  081E  	MOVF gbl_adresh, W
0E8E  00EE  	MOVWF FCD_ADC1_R_0005E_1_iRetVal
0E8F  01EF  	CLRF FCD_ADC1_R_0005E_1_iRetVal+D'1'
0E90  0DEE  	RLF FCD_ADC1_R_0005E_1_iRetVal, F
0E91  0DEF  	RLF FCD_ADC1_R_0005E_1_iRetVal+D'1', F
0E92  0DEE  	RLF FCD_ADC1_R_0005E_1_iRetVal, F
0E93  0DEF  	RLF FCD_ADC1_R_0005E_1_iRetVal+D'1', F
0E94  30FC  	MOVLW 0xFC
0E95  05EE  	ANDWF FCD_ADC1_R_0005E_1_iRetVal, F
0E96  1683  	BSF STATUS, RP0
0E97  0C1E  	RRF gbl_adresl, W
0E98  00F0  	MOVWF CompTempVar2267
0E99  0CF0  	RRF CompTempVar2267, F
0E9A  0EF0  	SWAPF CompTempVar2267, F
0E9B  3003  	MOVLW 0x03
0E9C  0570  	ANDWF CompTempVar2267, W
0E9D  1283  	BCF STATUS, RP0
0E9E  04EE  	IORWF FCD_ADC1_R_0005E_1_iRetVal, F
0E9F  08EF  	MOVF FCD_ADC1_R_0005E_1_iRetVal+D'1', F
0EA0  086E  	MOVF FCD_ADC1_R_0005E_1_iRetVal, W
0EA1  00F0  	MOVWF CompTempVarRet2264
0EA2  086F  	MOVF FCD_ADC1_R_0005E_1_iRetVal+D'1', W
0EA3  00F1  	MOVWF CompTempVarRet2264+D'1'
0EA4  0008  	RETURN
0EA5        ; } FCD_ADC1_ReadAsInt function end

	ORG 0x00000EA5
0EA5        FCD_ADC0_R_00058
0EA5        ; { FCD_ADC0_ReadAsInt ; function begin
0EA5  204C  	CALL FCD_ADC0_S_00056
0EA6  081E  	MOVF gbl_adresh, W
0EA7  00EE  	MOVWF FCD_ADC0_R_00058_1_iRetVal
0EA8  01EF  	CLRF FCD_ADC0_R_00058_1_iRetVal+D'1'
0EA9  0DEE  	RLF FCD_ADC0_R_00058_1_iRetVal, F
0EAA  0DEF  	RLF FCD_ADC0_R_00058_1_iRetVal+D'1', F
0EAB  0DEE  	RLF FCD_ADC0_R_00058_1_iRetVal, F
0EAC  0DEF  	RLF FCD_ADC0_R_00058_1_iRetVal+D'1', F
0EAD  30FC  	MOVLW 0xFC
0EAE  05EE  	ANDWF FCD_ADC0_R_00058_1_iRetVal, F
0EAF  1683  	BSF STATUS, RP0
0EB0  0C1E  	RRF gbl_adresl, W
0EB1  00F0  	MOVWF CompTempVar2258
0EB2  0CF0  	RRF CompTempVar2258, F
0EB3  0EF0  	SWAPF CompTempVar2258, F
0EB4  3003  	MOVLW 0x03
0EB5  0570  	ANDWF CompTempVar2258, W
0EB6  1283  	BCF STATUS, RP0
0EB7  04EE  	IORWF FCD_ADC0_R_00058_1_iRetVal, F
0EB8  08EF  	MOVF FCD_ADC0_R_00058_1_iRetVal+D'1', F
0EB9  086E  	MOVF FCD_ADC0_R_00058_1_iRetVal, W
0EBA  00F0  	MOVWF CompTempVarRet2255
0EBB  086F  	MOVF FCD_ADC0_R_00058_1_iRetVal+D'1', W
0EBC  00F1  	MOVWF CompTempVarRet2255+D'1'
0EBD  0008  	RETURN
0EBE        ; } FCD_ADC0_ReadAsInt function end

	ORG 0x00000EBE
0EBE        FCM_RS232_00000
0EBE        ; { FCM_RS232 ; function begin
0EBE  3000  	MOVLW HIGH(gbl_FCV_STRING+D'0')
0EBF  1283  	BCF STATUS, RP0
0EC0  1303  	BCF STATUS, RP1
0EC1  00E1  	MOVWF FCD_RS2320_00048_arg_FCR_RETVAL+D'1'
0EC2  303C  	MOVLW LOW(gbl_FCV_STRING+D'0')
0EC3  00E0  	MOVWF FCD_RS2320_00048_arg_FCR_RETVAL
0EC4  3004  	MOVLW 0x04
0EC5  00E2  	MOVWF FCD_RS2320_00048_arg_FCR_R_00049
0EC6  3032  	MOVLW 0x32
0EC7  00E3  	MOVWF FCD_RS2320_00048_arg_nTimeout
0EC8  3004  	MOVLW 0x04
0EC9  00E4  	MOVWF FCD_RS2320_00048_arg_NumBytes
0ECA  2610  	CALL FCD_RS2320_00048
0ECB  3000  	MOVLW HIGH(gbl_FCV_STRING+D'0')
0ECC  1683  	BSF STATUS, RP0
0ECD  00A1  	MOVWF FCI_STRING_00043_arg_String+D'1'
0ECE  303C  	MOVLW LOW(gbl_FCV_STRING+D'0')
0ECF  00A0  	MOVWF FCI_STRING_00043_arg_String
0ED0  3004  	MOVLW 0x04
0ED1  00A2  	MOVWF FCI_STRING_00043_arg_MSZ_String
0ED2  118A  	BCF PCLATH,3
0ED3  273B  	CALL FCI_STRING_00043
0ED4  0827  	MOVF CompTempVarRet2146, W
0ED5  1283  	BCF STATUS, RP0
0ED6  00D5  	MOVWF gbl_FCV_INTEIRO
0ED7  1683  	BSF STATUS, RP0
0ED8  0828  	MOVF CompTempVarRet2146+D'1', W
0ED9  1283  	BCF STATUS, RP0
0EDA  00D6  	MOVWF gbl_FCV_INTEIRO+D'1'
0EDB  3001  	MOVLW 0x01
0EDC  0655  	XORWF gbl_FCV_INTEIRO, W
0EDD  1903  	BTFSC STATUS,Z
0EDE  0856  	MOVF gbl_FCV_INTEIRO+D'1', W
0EDF  158A  	BSF PCLATH,3
0EE0  1903  	BTFSC STATUS,Z
0EE1  2F01  	GOTO	label261
0EE2  3002  	MOVLW 0x02
0EE3  0655  	XORWF gbl_FCV_INTEIRO, W
0EE4  1903  	BTFSC STATUS,Z
0EE5  0856  	MOVF gbl_FCV_INTEIRO+D'1', W
0EE6  1903  	BTFSC STATUS,Z
0EE7  2F0D  	GOTO	label262
0EE8  3003  	MOVLW 0x03
0EE9  0655  	XORWF gbl_FCV_INTEIRO, W
0EEA  1903  	BTFSC STATUS,Z
0EEB  0856  	MOVF gbl_FCV_INTEIRO+D'1', W
0EEC  1903  	BTFSC STATUS,Z
0EED  2F16  	GOTO	label263
0EEE  3004  	MOVLW 0x04
0EEF  0655  	XORWF gbl_FCV_INTEIRO, W
0EF0  1903  	BTFSC STATUS,Z
0EF1  0856  	MOVF gbl_FCV_INTEIRO+D'1', W
0EF2  1903  	BTFSC STATUS,Z
0EF3  2F22  	GOTO	label264
0EF4  3005  	MOVLW 0x05
0EF5  0655  	XORWF gbl_FCV_INTEIRO, W
0EF6  1903  	BTFSC STATUS,Z
0EF7  0856  	MOVF gbl_FCV_INTEIRO+D'1', W
0EF8  1903  	BTFSC STATUS,Z
0EF9  2F2B  	GOTO	label265
0EFA  3006  	MOVLW 0x06
0EFB  0655  	XORWF gbl_FCV_INTEIRO, W
0EFC  1903  	BTFSC STATUS,Z
0EFD  0856  	MOVF gbl_FCV_INTEIRO+D'1', W
0EFE  1903  	BTFSC STATUS,Z
0EFF  2F37  	GOTO	label266
0F00  2F3F  	GOTO	label267
0F01        label261
0F01  30FE  	MOVLW 0xFE
0F02  1683  	BSF STATUS, RP0
0F03  0508  	ANDWF gbl_trisd, W
0F04  0088  	MOVWF gbl_trisd
0F05  30FE  	MOVLW 0xFE
0F06  1283  	BCF STATUS, RP0
0F07  0508  	ANDWF gbl_portd, W
0F08  00E0  	MOVWF CompTempVar2207
0F09  3001  	MOVLW 0x01
0F0A  0460  	IORWF CompTempVar2207, W
0F0B  0088  	MOVWF gbl_portd
0F0C  2F3F  	GOTO	label267
0F0D        label262
0F0D  30FE  	MOVLW 0xFE
0F0E  1683  	BSF STATUS, RP0
0F0F  0508  	ANDWF gbl_trisd, W
0F10  0088  	MOVWF gbl_trisd
0F11  30FE  	MOVLW 0xFE
0F12  1283  	BCF STATUS, RP0
0F13  0508  	ANDWF gbl_portd, W
0F14  0088  	MOVWF gbl_portd
0F15  2F3F  	GOTO	label267
0F16        label263
0F16  30FD  	MOVLW 0xFD
0F17  1683  	BSF STATUS, RP0
0F18  0508  	ANDWF gbl_trisd, W
0F19  0088  	MOVWF gbl_trisd
0F1A  30FD  	MOVLW 0xFD
0F1B  1283  	BCF STATUS, RP0
0F1C  0508  	ANDWF gbl_portd, W
0F1D  00E0  	MOVWF CompTempVar2208
0F1E  3002  	MOVLW 0x02
0F1F  0460  	IORWF CompTempVar2208, W
0F20  0088  	MOVWF gbl_portd
0F21  2F3F  	GOTO	label267
0F22        label264
0F22  30FD  	MOVLW 0xFD
0F23  1683  	BSF STATUS, RP0
0F24  0508  	ANDWF gbl_trisd, W
0F25  0088  	MOVWF gbl_trisd
0F26  30FD  	MOVLW 0xFD
0F27  1283  	BCF STATUS, RP0
0F28  0508  	ANDWF gbl_portd, W
0F29  0088  	MOVWF gbl_portd
0F2A  2F3F  	GOTO	label267
0F2B        label265
0F2B  30FB  	MOVLW 0xFB
0F2C  1683  	BSF STATUS, RP0
0F2D  0508  	ANDWF gbl_trisd, W
0F2E  0088  	MOVWF gbl_trisd
0F2F  30FB  	MOVLW 0xFB
0F30  1283  	BCF STATUS, RP0
0F31  0508  	ANDWF gbl_portd, W
0F32  00E0  	MOVWF CompTempVar2209
0F33  3004  	MOVLW 0x04
0F34  0460  	IORWF CompTempVar2209, W
0F35  0088  	MOVWF gbl_portd
0F36  2F3F  	GOTO	label267
0F37        label266
0F37  30FB  	MOVLW 0xFB
0F38  1683  	BSF STATUS, RP0
0F39  0508  	ANDWF gbl_trisd, W
0F3A  0088  	MOVWF gbl_trisd
0F3B  30FB  	MOVLW 0xFB
0F3C  1283  	BCF STATUS, RP0
0F3D  0508  	ANDWF gbl_portd, W
0F3E  0088  	MOVWF gbl_portd
0F3F        label267
0F3F  3007  	MOVLW 0x07
0F40  0655  	XORWF gbl_FCV_INTEIRO, W
0F41  1903  	BTFSC STATUS,Z
0F42  0856  	MOVF gbl_FCV_INTEIRO+D'1', W
0F43  1903  	BTFSC STATUS,Z
0F44  2F64  	GOTO	label268
0F45  3008  	MOVLW 0x08
0F46  0655  	XORWF gbl_FCV_INTEIRO, W
0F47  1903  	BTFSC STATUS,Z
0F48  0856  	MOVF gbl_FCV_INTEIRO+D'1', W
0F49  1903  	BTFSC STATUS,Z
0F4A  2F70  	GOTO	label269
0F4B  3009  	MOVLW 0x09
0F4C  0655  	XORWF gbl_FCV_INTEIRO, W
0F4D  1903  	BTFSC STATUS,Z
0F4E  0856  	MOVF gbl_FCV_INTEIRO+D'1', W
0F4F  1903  	BTFSC STATUS,Z
0F50  2F79  	GOTO	label270
0F51  300A  	MOVLW 0x0A
0F52  0655  	XORWF gbl_FCV_INTEIRO, W
0F53  1903  	BTFSC STATUS,Z
0F54  0856  	MOVF gbl_FCV_INTEIRO+D'1', W
0F55  1903  	BTFSC STATUS,Z
0F56  2F85  	GOTO	label271
0F57  300B  	MOVLW 0x0B
0F58  0655  	XORWF gbl_FCV_INTEIRO, W
0F59  1903  	BTFSC STATUS,Z
0F5A  0856  	MOVF gbl_FCV_INTEIRO+D'1', W
0F5B  1903  	BTFSC STATUS,Z
0F5C  2F8E  	GOTO	label272
0F5D  300C  	MOVLW 0x0C
0F5E  0655  	XORWF gbl_FCV_INTEIRO, W
0F5F  1903  	BTFSC STATUS,Z
0F60  0856  	MOVF gbl_FCV_INTEIRO+D'1', W
0F61  1903  	BTFSC STATUS,Z
0F62  2F9A  	GOTO	label273
0F63  2FA2  	GOTO	label274
0F64        label268
0F64  30F7  	MOVLW 0xF7
0F65  1683  	BSF STATUS, RP0
0F66  0508  	ANDWF gbl_trisd, W
0F67  0088  	MOVWF gbl_trisd
0F68  30F7  	MOVLW 0xF7
0F69  1283  	BCF STATUS, RP0
0F6A  0508  	ANDWF gbl_portd, W
0F6B  00E0  	MOVWF CompTempVar2210
0F6C  3008  	MOVLW 0x08
0F6D  0460  	IORWF CompTempVar2210, W
0F6E  0088  	MOVWF gbl_portd
0F6F  2FA2  	GOTO	label274
0F70        label269
0F70  30F7  	MOVLW 0xF7
0F71  1683  	BSF STATUS, RP0
0F72  0508  	ANDWF gbl_trisd, W
0F73  0088  	MOVWF gbl_trisd
0F74  30F7  	MOVLW 0xF7
0F75  1283  	BCF STATUS, RP0
0F76  0508  	ANDWF gbl_portd, W
0F77  0088  	MOVWF gbl_portd
0F78  2FA2  	GOTO	label274
0F79        label270
0F79  30EF  	MOVLW 0xEF
0F7A  1683  	BSF STATUS, RP0
0F7B  0508  	ANDWF gbl_trisd, W
0F7C  0088  	MOVWF gbl_trisd
0F7D  30EF  	MOVLW 0xEF
0F7E  1283  	BCF STATUS, RP0
0F7F  0508  	ANDWF gbl_portd, W
0F80  00E0  	MOVWF CompTempVar2211
0F81  3010  	MOVLW 0x10
0F82  0460  	IORWF CompTempVar2211, W
0F83  0088  	MOVWF gbl_portd
0F84  2FA2  	GOTO	label274
0F85        label271
0F85  30EF  	MOVLW 0xEF
0F86  1683  	BSF STATUS, RP0
0F87  0508  	ANDWF gbl_trisd, W
0F88  0088  	MOVWF gbl_trisd
0F89  30EF  	MOVLW 0xEF
0F8A  1283  	BCF STATUS, RP0
0F8B  0508  	ANDWF gbl_portd, W
0F8C  0088  	MOVWF gbl_portd
0F8D  2FA2  	GOTO	label274
0F8E        label272
0F8E  30DF  	MOVLW 0xDF
0F8F  1683  	BSF STATUS, RP0
0F90  0508  	ANDWF gbl_trisd, W
0F91  0088  	MOVWF gbl_trisd
0F92  30DF  	MOVLW 0xDF
0F93  1283  	BCF STATUS, RP0
0F94  0508  	ANDWF gbl_portd, W
0F95  00E0  	MOVWF CompTempVar2212
0F96  3020  	MOVLW 0x20
0F97  0460  	IORWF CompTempVar2212, W
0F98  0088  	MOVWF gbl_portd
0F99  2FA2  	GOTO	label274
0F9A        label273
0F9A  30DF  	MOVLW 0xDF
0F9B  1683  	BSF STATUS, RP0
0F9C  0508  	ANDWF gbl_trisd, W
0F9D  0088  	MOVWF gbl_trisd
0F9E  30DF  	MOVLW 0xDF
0F9F  1283  	BCF STATUS, RP0
0FA0  0508  	ANDWF gbl_portd, W
0FA1  0088  	MOVWF gbl_portd
0FA2        label274
0FA2  0855  	MOVF gbl_FCV_INTEIRO, W
0FA3  3C00  	SUBLW 0x00
0FA4  0856  	MOVF gbl_FCV_INTEIRO+D'1', W
0FA5  1803  	BTFSC STATUS,C
0FA6  1D03  	BTFSS STATUS,Z
0FA7  1BD6  	BTFSC gbl_FCV_INTEIRO+D'1',7
0FA8  2FFA  	GOTO	label277
0FA9  300D  	MOVLW 0x0D
0FAA  0255  	SUBWF gbl_FCV_INTEIRO, W
0FAB  0856  	MOVF gbl_FCV_INTEIRO+D'1', W
0FAC  1803  	BTFSC STATUS,C
0FAD  2FB0  	GOTO	label275
0FAE  1903  	BTFSC STATUS,Z
0FAF  2FB2  	GOTO	label276
0FB0        label275
0FB0  1FD6  	BTFSS gbl_FCV_INTEIRO+D'1',7
0FB1  2FFA  	GOTO	label277
0FB2        label276
0FB2  267A  	CALL FCD_LCDDis_0004A
0FB3  3020  	MOVLW 0x20
0FB4  00E9  	MOVWF CompTempVar2213+D'7'
0FB5  3041  	MOVLW 0x41
0FB6  00E2  	MOVWF CompTempVar2213
0FB7  00E5  	MOVWF CompTempVar2213+D'3'
0FB8  3044  	MOVLW 0x44
0FB9  00E7  	MOVWF CompTempVar2213+D'5'
0FBA  304E  	MOVLW 0x4E
0FBB  00E6  	MOVWF CompTempVar2213+D'4'
0FBC  00EA  	MOVWF CompTempVar2213+D'8'
0FBD  304F  	MOVLW 0x4F
0FBE  00E8  	MOVWF CompTempVar2213+D'6'
0FBF  00EB  	MOVWF CompTempVar2213+D'9'
0FC0  3054  	MOVLW 0x54
0FC1  00E3  	MOVWF CompTempVar2213+D'1'
0FC2  3055  	MOVLW 0x55
0FC3  00E4  	MOVWF CompTempVar2213+D'2'
0FC4  01EC  	CLRF CompTempVar2213+D'10'
0FC5  3000  	MOVLW HIGH(CompTempVar2213+D'0')
0FC6  00E1  	MOVWF FCD_LCDDis_0004B_arg_String+D'1'
0FC7  3062  	MOVLW LOW(CompTempVar2213+D'0')
0FC8  00E0  	MOVWF FCD_LCDDis_0004B_arg_String
0FC9  300A  	MOVLW 0x0A
0FCA  00F1  	MOVWF FCD_LCDDis_0004B_arg_MSZ_String
0FCB  158A  	BSF PCLATH,3
0FCC  265A  	CALL FCD_LCDDis_0004B
0FCD  1283  	BCF STATUS, RP0
0FCE  1303  	BCF STATUS, RP1
0FCF  01E0  	CLRF FCD_LCDDis_0004C_arg_x
0FD0  3001  	MOVLW 0x01
0FD1  00E1  	MOVWF FCD_LCDDis_0004C_arg_y
0FD2  2647  	CALL FCD_LCDDis_0004C
0FD3  302E  	MOVLW 0x2E
0FD4  00ED  	MOVWF CompTempVar2215+D'11'
0FD5  00EE  	MOVWF CompTempVar2215+D'12'
0FD6  00EF  	MOVWF CompTempVar2215+D'13'
0FD7  3044  	MOVLW 0x44
0FD8  00E2  	MOVWF CompTempVar2215
0FD9  3049  	MOVLW 0x49
0FDA  00E3  	MOVWF CompTempVar2215+D'1'
0FDB  00E8  	MOVWF CompTempVar2215+D'6'
0FDC  00EA  	MOVWF CompTempVar2215+D'8'
0FDD  304F  	MOVLW 0x4F
0FDE  00E6  	MOVWF CompTempVar2215+D'4'
0FDF  00EC  	MOVWF CompTempVar2215+D'10'
0FE0  3050  	MOVLW 0x50
0FE1  00E5  	MOVWF CompTempVar2215+D'3'
0FE2  3053  	MOVLW 0x53
0FE3  00E4  	MOVWF CompTempVar2215+D'2'
0FE4  00E7  	MOVWF CompTempVar2215+D'5'
0FE5  3054  	MOVLW 0x54
0FE6  00E9  	MOVWF CompTempVar2215+D'7'
0FE7  3056  	MOVLW 0x56
0FE8  00EB  	MOVWF CompTempVar2215+D'9'
0FE9  01F0  	CLRF CompTempVar2215+D'14'
0FEA  3000  	MOVLW HIGH(CompTempVar2215+D'0')
0FEB  00E1  	MOVWF FCD_LCDDis_0004B_arg_String+D'1'
0FEC  3062  	MOVLW LOW(CompTempVar2215+D'0')
0FED  00E0  	MOVWF FCD_LCDDis_0004B_arg_String
0FEE  300E  	MOVLW 0x0E
0FEF  00F1  	MOVWF FCD_LCDDis_0004B_arg_MSZ_String
0FF0  158A  	BSF PCLATH,3
0FF1  265A  	CALL FCD_LCDDis_0004B
0FF2  3001  	MOVLW 0x01
0FF3  1283  	BCF STATUS, RP0
0FF4  1303  	BCF STATUS, RP1
0FF5  00E0  	MOVWF delay_s_00000_arg_del
0FF6  118A  	BCF PCLATH,3
0FF7  2040  	CALL delay_s_00000
0FF8  158A  	BSF PCLATH,3
0FF9  267A  	CALL FCD_LCDDis_0004A
0FFA        label277
0FFA  3000  	MOVLW HIGH(gbl_FCV_STRING+D'0')
0FFB  00E1  	MOVWF FCI_STRING_00044_arg_String+D'1'
0FFC  303C  	MOVLW LOW(gbl_FCV_STRING+D'0')
0FFD  00E0  	MOVWF FCI_STRING_00044_arg_String
0FFE  3004  	MOVLW 0x04
0FFF  00E2  	MOVWF FCI_STRING_00044_arg_MSZ_String
1000  158A  	BSF PCLATH,3
1001  2457  	CALL FCI_STRING_00044
1002  087B  	MOVF CompTempVarRet2161, W
1003  00B8  	MOVWF gbl_FCV_PWM
1004  087C  	MOVF CompTempVarRet2161+D'1', W
1005  00B9  	MOVWF gbl_FCV_PWM+D'1'
1006  087D  	MOVF CompTempVarRet2161+D'2', W
1007  00BA  	MOVWF gbl_FCV_PWM+D'2'
1008  087E  	MOVF CompTempVarRet2161+D'3', W
1009  00BB  	MOVWF gbl_FCV_PWM+D'3'
100A  083B  	MOVF gbl_FCV_PWM+D'3', W
100B  3C00  	SUBLW 0x00
100C  118A  	BCF PCLATH,3
100D  160A  	BSF PCLATH,4
100E  1D03  	BTFSS STATUS,Z
100F  281A  	GOTO	label278
1010  083A  	MOVF gbl_FCV_PWM+D'2', W
1011  3C00  	SUBLW 0x00
1012  1D03  	BTFSS STATUS,Z
1013  281A  	GOTO	label278
1014  0839  	MOVF gbl_FCV_PWM+D'1', W
1015  3C01  	SUBLW 0x01
1016  1D03  	BTFSS STATUS,Z
1017  281A  	GOTO	label278
1018  0838  	MOVF gbl_FCV_PWM, W
1019  3C8F  	SUBLW 0x8F
101A        label278
101A  1803  	BTFSC STATUS,C
101B  0008  	RETURN
101C  083B  	MOVF gbl_FCV_PWM+D'3', W
101D  3C00  	SUBLW 0x00
101E  1D03  	BTFSS STATUS,Z
101F  282A  	GOTO	label279
1020  083A  	MOVF gbl_FCV_PWM+D'2', W
1021  3C00  	SUBLW 0x00
1022  1D03  	BTFSS STATUS,Z
1023  282A  	GOTO	label279
1024  0839  	MOVF gbl_FCV_PWM+D'1', W
1025  3C03  	SUBLW 0x03
1026  1D03  	BTFSS STATUS,Z
1027  282A  	GOTO	label279
1028  0838  	MOVF gbl_FCV_PWM, W
1029  3CE8  	SUBLW 0xE8
102A        label279
102A  1803  	BTFSC STATUS,C
102B  2858  	GOTO	label280
102C  158A  	BSF PCLATH,3
102D  120A  	BCF PCLATH,4
102E  267A  	CALL FCD_LCDDis_0004A
102F  3020  	MOVLW 0x20
1030  00E9  	MOVWF CompTempVar2218+D'7'
1031  3041  	MOVLW 0x41
1032  00E2  	MOVWF CompTempVar2218
1033  00E5  	MOVWF CompTempVar2218+D'3'
1034  3044  	MOVLW 0x44
1035  00E7  	MOVWF CompTempVar2218+D'5'
1036  3045  	MOVLW 0x45
1037  00EB  	MOVWF CompTempVar2218+D'9'
1038  3046  	MOVLW 0x46
1039  00EA  	MOVWF CompTempVar2218+D'8'
103A  304E  	MOVLW 0x4E
103B  00E6  	MOVWF CompTempVar2218+D'4'
103C  304F  	MOVLW 0x4F
103D  00E8  	MOVWF CompTempVar2218+D'6'
103E  3052  	MOVLW 0x52
103F  00EC  	MOVWF CompTempVar2218+D'10'
1040  3054  	MOVLW 0x54
1041  00E3  	MOVWF CompTempVar2218+D'1'
1042  3055  	MOVLW 0x55
1043  00E4  	MOVWF CompTempVar2218+D'2'
1044  3056  	MOVLW 0x56
1045  00ED  	MOVWF CompTempVar2218+D'11'
1046  01EE  	CLRF CompTempVar2218+D'12'
1047  3000  	MOVLW HIGH(CompTempVar2218+D'0')
1048  00E1  	MOVWF FCD_LCDDis_0004B_arg_String+D'1'
1049  3062  	MOVLW LOW(CompTempVar2218+D'0')
104A  00E0  	MOVWF FCD_LCDDis_0004B_arg_String
104B  300C  	MOVLW 0x0C
104C  00F1  	MOVWF FCD_LCDDis_0004B_arg_MSZ_String
104D  158A  	BSF PCLATH,3
104E  265A  	CALL FCD_LCDDis_0004B
104F  3001  	MOVLW 0x01
1050  1283  	BCF STATUS, RP0
1051  1303  	BCF STATUS, RP1
1052  00E0  	MOVWF delay_s_00000_arg_del
1053  118A  	BCF PCLATH,3
1054  2040  	CALL delay_s_00000
1055  158A  	BSF PCLATH,3
1056  267A  	CALL FCD_LCDDis_0004A
1057  0008  	RETURN
1058        label280
1058  158A  	BSF PCLATH,3
1059  120A  	BCF PCLATH,4
105A  267A  	CALL FCD_LCDDis_0004A
105B  3020  	MOVLW 0x20
105C  00E9  	MOVWF CompTempVar2220+D'7'
105D  3041  	MOVLW 0x41
105E  00E2  	MOVWF CompTempVar2220
105F  00E5  	MOVWF CompTempVar2220+D'3'
1060  3044  	MOVLW 0x44
1061  00E7  	MOVWF CompTempVar2220+D'5'
1062  304D  	MOVLW 0x4D
1063  00EA  	MOVWF CompTempVar2220+D'8'
1064  304E  	MOVLW 0x4E
1065  00E6  	MOVWF CompTempVar2220+D'4'
1066  304F  	MOVLW 0x4F
1067  00E8  	MOVWF CompTempVar2220+D'6'
1068  00EB  	MOVWF CompTempVar2220+D'9'
1069  3053  	MOVLW 0x53
106A  00EC  	MOVWF CompTempVar2220+D'10'
106B  3054  	MOVLW 0x54
106C  00E3  	MOVWF CompTempVar2220+D'1'
106D  00ED  	MOVWF CompTempVar2220+D'11'
106E  3055  	MOVLW 0x55
106F  00E4  	MOVWF CompTempVar2220+D'2'
1070  01EE  	CLRF CompTempVar2220+D'12'
1071  3000  	MOVLW HIGH(CompTempVar2220+D'0')
1072  00E1  	MOVWF FCD_LCDDis_0004B_arg_String+D'1'
1073  3062  	MOVLW LOW(CompTempVar2220+D'0')
1074  00E0  	MOVWF FCD_LCDDis_0004B_arg_String
1075  300C  	MOVLW 0x0C
1076  00F1  	MOVWF FCD_LCDDis_0004B_arg_MSZ_String
1077  158A  	BSF PCLATH,3
1078  265A  	CALL FCD_LCDDis_0004B
1079  3001  	MOVLW 0x01
107A  1283  	BCF STATUS, RP0
107B  1303  	BCF STATUS, RP1
107C  00E0  	MOVWF delay_s_00000_arg_del
107D  118A  	BCF PCLATH,3
107E  2040  	CALL delay_s_00000
107F  158A  	BSF PCLATH,3
1080  267A  	CALL FCD_LCDDis_0004A
1081  0008  	RETURN
1082        ; } FCM_RS232 function end

	ORG 0x00001082
1082        FCI_FLOAT__00041
1082        ; { FCI_FLOAT_TO_STRING ; function begin
1082  01EC  	CLRF FCI_FLOAT__00041_1_stringidx
1083  3003  	MOVLW 0x03
1084  00D8  	MOVWF gbl_float_rounding_mode
1085  0860  	MOVF FCI_FLOAT__00041_arg_Number, W
1086  1683  	BSF STATUS, RP0
1087  00A0  	MOVWF float32_to_int32_arg_a
1088  1283  	BCF STATUS, RP0
1089  0861  	MOVF FCI_FLOAT__00041_arg_Number+D'1', W
108A  1683  	BSF STATUS, RP0
108B  00A1  	MOVWF float32_to_int32_arg_a+D'1'
108C  1283  	BCF STATUS, RP0
108D  0862  	MOVF FCI_FLOAT__00041_arg_Number+D'2', W
108E  1683  	BSF STATUS, RP0
108F  00A2  	MOVWF float32_to_int32_arg_a+D'2'
1090  1283  	BCF STATUS, RP0
1091  0863  	MOVF FCI_FLOAT__00041_arg_Number+D'3', W
1092  1683  	BSF STATUS, RP0
1093  00A3  	MOVWF float32_to_int32_arg_a+D'3'
1094  158A  	BSF PCLATH,3
1095  120A  	BCF PCLATH,4
1096  206C  	CALL float32_to_int32
1097  082B  	MOVF CompTempVarRet850, W
1098  1283  	BCF STATUS, RP0
1099  00E8  	MOVWF FCI_FLOAT__00041_1_whole
109A  1683  	BSF STATUS, RP0
109B  082C  	MOVF CompTempVarRet850+D'1', W
109C  1283  	BCF STATUS, RP0
109D  00E9  	MOVWF FCI_FLOAT__00041_1_whole+D'1'
109E  0868  	MOVF FCI_FLOAT__00041_1_whole, W
109F  1683  	BSF STATUS, RP0
10A0  00A0  	MOVWF float32_from_int32_arg_a
10A1  1283  	BCF STATUS, RP0
10A2  0869  	MOVF FCI_FLOAT__00041_1_whole+D'1', W
10A3  1683  	BSF STATUS, RP0
10A4  00A1  	MOVWF float32_from_int32_arg_a+D'1'
10A5  01A2  	CLRF float32_from_int32_arg_a+D'2'
10A6  01A3  	CLRF float32_from_int32_arg_a+D'3'
10A7  1283  	BCF STATUS, RP0
10A8  118A  	BCF PCLATH,3
10A9  160A  	BSF PCLATH,4
10AA  1FE9  	BTFSS FCI_FLOAT__00041_1_whole+D'1',7
10AB  28AF  	GOTO	label281
10AC  1683  	BSF STATUS, RP0
10AD  03A2  	DECF float32_from_int32_arg_a+D'2', F
10AE  03A3  	DECF float32_from_int32_arg_a+D'3', F
10AF        label281
10AF  1683  	BSF STATUS, RP0
10B0  120A  	BCF PCLATH,4
10B1  24C1  	CALL float32_from_int32
10B2  0828  	MOVF CompTempVarRet813, W
10B3  00F1  	MOVWF FCI_FLOAT__00041_1_temp
10B4  0829  	MOVF CompTempVarRet813+D'1', W
10B5  00F2  	MOVWF FCI_FLOAT__00041_1_temp+D'1'
10B6  082A  	MOVF CompTempVarRet813+D'2', W
10B7  00F3  	MOVWF FCI_FLOAT__00041_1_temp+D'2'
10B8  082B  	MOVF CompTempVarRet813+D'3', W
10B9  00F4  	MOVWF FCI_FLOAT__00041_1_temp+D'3'
10BA  01A0  	CLRF float32_le_arg_a
10BB  01A1  	CLRF float32_le_arg_a+D'1'
10BC  01A2  	CLRF float32_le_arg_a+D'2'
10BD  01A3  	CLRF float32_le_arg_a+D'3'
10BE  1283  	BCF STATUS, RP0
10BF  0860  	MOVF FCI_FLOAT__00041_arg_Number, W
10C0  1683  	BSF STATUS, RP0
10C1  00A4  	MOVWF float32_le_arg_b
10C2  1283  	BCF STATUS, RP0
10C3  0861  	MOVF FCI_FLOAT__00041_arg_Number+D'1', W
10C4  1683  	BSF STATUS, RP0
10C5  00A5  	MOVWF float32_le_arg_b+D'1'
10C6  1283  	BCF STATUS, RP0
10C7  0862  	MOVF FCI_FLOAT__00041_arg_Number+D'2', W
10C8  1683  	BSF STATUS, RP0
10C9  00A6  	MOVWF float32_le_arg_b+D'2'
10CA  1283  	BCF STATUS, RP0
10CB  0863  	MOVF FCI_FLOAT__00041_arg_Number+D'3', W
10CC  1683  	BSF STATUS, RP0
10CD  00A7  	MOVWF float32_le_arg_b+D'3'
10CE  158A  	BSF PCLATH,3
10CF  2232  	CALL float32_le
10D0  08BE  	MOVF CompTempVarRet1726, F
10D1  118A  	BCF PCLATH,3
10D2  160A  	BSF PCLATH,4
10D3  1903  	BTFSC STATUS,Z
10D4  2902  	GOTO	label282
10D5  1283  	BCF STATUS, RP0
10D6  0860  	MOVF FCI_FLOAT__00041_arg_Number, W
10D7  1683  	BSF STATUS, RP0
10D8  00A0  	MOVWF float32_addsub_arg_a
10D9  1283  	BCF STATUS, RP0
10DA  0861  	MOVF FCI_FLOAT__00041_arg_Number+D'1', W
10DB  1683  	BSF STATUS, RP0
10DC  00A1  	MOVWF float32_addsub_arg_a+D'1'
10DD  1283  	BCF STATUS, RP0
10DE  0862  	MOVF FCI_FLOAT__00041_arg_Number+D'2', W
10DF  1683  	BSF STATUS, RP0
10E0  00A2  	MOVWF float32_addsub_arg_a+D'2'
10E1  1283  	BCF STATUS, RP0
10E2  0863  	MOVF FCI_FLOAT__00041_arg_Number+D'3', W
10E3  1683  	BSF STATUS, RP0
10E4  00A3  	MOVWF float32_addsub_arg_a+D'3'
10E5  0871  	MOVF FCI_FLOAT__00041_1_temp, W
10E6  00A4  	MOVWF float32_addsub_arg_b
10E7  0872  	MOVF FCI_FLOAT__00041_1_temp+D'1', W
10E8  00A5  	MOVWF float32_addsub_arg_b+D'1'
10E9  0873  	MOVF FCI_FLOAT__00041_1_temp+D'2', W
10EA  00A6  	MOVWF float32_addsub_arg_b+D'2'
10EB  0874  	MOVF FCI_FLOAT__00041_1_temp+D'3', W
10EC  00A7  	MOVWF float32_addsub_arg_b+D'3'
10ED  3001  	MOVLW 0x01
10EE  00A8  	MOVWF float32_addsub_arg_subtract
10EF  120A  	BCF PCLATH,4
10F0  253C  	CALL float32_addsub
10F1  0830  	MOVF CompTempVarRet1019, W
10F2  1283  	BCF STATUS, RP0
10F3  00ED  	MOVWF FCI_FLOAT__00041_1_real
10F4  1683  	BSF STATUS, RP0
10F5  0831  	MOVF CompTempVarRet1019+D'1', W
10F6  1283  	BCF STATUS, RP0
10F7  00EE  	MOVWF FCI_FLOAT__00041_1_real+D'1'
10F8  1683  	BSF STATUS, RP0
10F9  0832  	MOVF CompTempVarRet1019+D'2', W
10FA  1283  	BCF STATUS, RP0
10FB  00EF  	MOVWF FCI_FLOAT__00041_1_real+D'2'
10FC  1683  	BSF STATUS, RP0
10FD  0833  	MOVF CompTempVarRet1019+D'3', W
10FE  1283  	BCF STATUS, RP0
10FF  00F0  	MOVWF FCI_FLOAT__00041_1_real+D'3'
1100  160A  	BSF PCLATH,4
1101  293F  	GOTO	label284
1102        label282
1102  1283  	BCF STATUS, RP0
1103  08E8  	MOVF FCI_FLOAT__00041_1_whole, F
1104  1D03  	BTFSS STATUS,Z
1105  2913  	GOTO	label283
1106  08E9  	MOVF FCI_FLOAT__00041_1_whole+D'1', F
1107  1D03  	BTFSS STATUS,Z
1108  2913  	GOTO	label283
1109  1383  	BCF STATUS,IRP
110A  1866  	BTFSC FCI_FLOAT__00041_arg_String+D'1',0
110B  1783  	BSF STATUS,IRP
110C  0865  	MOVF FCI_FLOAT__00041_arg_String, W
110D  076C  	ADDWF FCI_FLOAT__00041_1_stringidx, W
110E  0084  	MOVWF FSR
110F  302D  	MOVLW 0x2D
1110  0080  	MOVWF INDF
1111  0A6C  	INCF FCI_FLOAT__00041_1_stringidx, W
1112  00EC  	MOVWF FCI_FLOAT__00041_1_stringidx
1113        label283
1113  0871  	MOVF FCI_FLOAT__00041_1_temp, W
1114  1683  	BSF STATUS, RP0
1115  00A0  	MOVWF float32_addsub_arg_a
1116  0872  	MOVF FCI_FLOAT__00041_1_temp+D'1', W
1117  00A1  	MOVWF float32_addsub_arg_a+D'1'
1118  0873  	MOVF FCI_FLOAT__00041_1_temp+D'2', W
1119  00A2  	MOVWF float32_addsub_arg_a+D'2'
111A  0874  	MOVF FCI_FLOAT__00041_1_temp+D'3', W
111B  00A3  	MOVWF float32_addsub_arg_a+D'3'
111C  1283  	BCF STATUS, RP0
111D  0860  	MOVF FCI_FLOAT__00041_arg_Number, W
111E  1683  	BSF STATUS, RP0
111F  00A4  	MOVWF float32_addsub_arg_b
1120  1283  	BCF STATUS, RP0
1121  0861  	MOVF FCI_FLOAT__00041_arg_Number+D'1', W
1122  1683  	BSF STATUS, RP0
1123  00A5  	MOVWF float32_addsub_arg_b+D'1'
1124  1283  	BCF STATUS, RP0
1125  0862  	MOVF FCI_FLOAT__00041_arg_Number+D'2', W
1126  1683  	BSF STATUS, RP0
1127  00A6  	MOVWF float32_addsub_arg_b+D'2'
1128  1283  	BCF STATUS, RP0
1129  0863  	MOVF FCI_FLOAT__00041_arg_Number+D'3', W
112A  1683  	BSF STATUS, RP0
112B  00A7  	MOVWF float32_addsub_arg_b+D'3'
112C  3001  	MOVLW 0x01
112D  00A8  	MOVWF float32_addsub_arg_subtract
112E  120A  	BCF PCLATH,4
112F  253C  	CALL float32_addsub
1130  0830  	MOVF CompTempVarRet1019, W
1131  1283  	BCF STATUS, RP0
1132  00ED  	MOVWF FCI_FLOAT__00041_1_real
1133  1683  	BSF STATUS, RP0
1134  0831  	MOVF CompTempVarRet1019+D'1', W
1135  1283  	BCF STATUS, RP0
1136  00EE  	MOVWF FCI_FLOAT__00041_1_real+D'1'
1137  1683  	BSF STATUS, RP0
1138  0832  	MOVF CompTempVarRet1019+D'2', W
1139  1283  	BCF STATUS, RP0
113A  00EF  	MOVWF FCI_FLOAT__00041_1_real+D'2'
113B  1683  	BSF STATUS, RP0
113C  0833  	MOVF CompTempVarRet1019+D'3', W
113D  1283  	BCF STATUS, RP0
113E  00F0  	MOVWF FCI_FLOAT__00041_1_real+D'3'
113F        label284
113F  0868  	MOVF FCI_FLOAT__00041_1_whole, W
1140  1683  	BSF STATUS, RP0
1141  00A0  	MOVWF FCI_TOSTRI_00017_arg_iSrc1
1142  1283  	BCF STATUS, RP0
1143  0869  	MOVF FCI_FLOAT__00041_1_whole+D'1', W
1144  1683  	BSF STATUS, RP0
1145  00A1  	MOVWF FCI_TOSTRI_00017_arg_iSrc1+D'1'
1146  3000  	MOVLW HIGH(FCI_FLOAT__00041_1_temp_string+D'0')
1147  00A3  	MOVWF FCI_TOSTRI_00017_arg_sDst+D'1'
1148  3075  	MOVLW LOW(FCI_FLOAT__00041_1_temp_string+D'0')
1149  00A2  	MOVWF FCI_TOSTRI_00017_arg_sDst
114A  3005  	MOVLW 0x05
114B  00A4  	MOVWF FCI_TOSTRI_00017_arg_iDst_len
114C  158A  	BSF PCLATH,3
114D  120A  	BCF PCLATH,4
114E  2310  	CALL FCI_TOSTRI_00017
114F  0829  	MOVF CompTempVarRet724, W
1150  1283  	BCF STATUS, RP0
1151  00EA  	MOVWF FCI_FLOAT__00041_1_str_length
1152  01EB  	CLRF FCI_FLOAT__00041_1_idx
1153        label285
1153  086A  	MOVF FCI_FLOAT__00041_1_str_length, W
1154  026B  	SUBWF FCI_FLOAT__00041_1_idx, W
1155  118A  	BCF PCLATH,3
1156  160A  	BSF PCLATH,4
1157  1803  	BTFSC STATUS,C
1158  2976  	GOTO	label287
1159  0867  	MOVF FCI_FLOAT__00041_arg_MSZ_String, W
115A  026C  	SUBWF FCI_FLOAT__00041_1_stringidx, W
115B  1803  	BTFSC STATUS,C
115C  2974  	GOTO	label286
115D  1383  	BCF	STATUS,IRP
115E  3075  	MOVLW LOW(FCI_FLOAT__00041_1_temp_string+D'0')
115F  0084  	MOVWF FSR
1160  086B  	MOVF FCI_FLOAT__00041_1_idx, W
1161  1683  	BSF STATUS, RP0
1162  00A0  	MOVWF CompTempVar2116
1163  0820  	MOVF CompTempVar2116, W
1164  0784  	ADDWF FSR, F
1165  0800  	MOVF INDF, W
1166  00A1  	MOVWF CompTempVar2117
1167  1383  	BCF STATUS,IRP
1168  1283  	BCF STATUS, RP0
1169  1866  	BTFSC FCI_FLOAT__00041_arg_String+D'1',0
116A  1783  	BSF STATUS,IRP
116B  0865  	MOVF FCI_FLOAT__00041_arg_String, W
116C  076C  	ADDWF FCI_FLOAT__00041_1_stringidx, W
116D  0084  	MOVWF FSR
116E  1683  	BSF STATUS, RP0
116F  0821  	MOVF CompTempVar2117, W
1170  0080  	MOVWF INDF
1171  1283  	BCF STATUS, RP0
1172  0A6C  	INCF FCI_FLOAT__00041_1_stringidx, W
1173  00EC  	MOVWF FCI_FLOAT__00041_1_stringidx
1174        label286
1174  0AEB  	INCF FCI_FLOAT__00041_1_idx, F
1175  2953  	GOTO	label285
1176        label287
1176  0867  	MOVF FCI_FLOAT__00041_arg_MSZ_String, W
1177  026C  	SUBWF FCI_FLOAT__00041_1_stringidx, W
1178  1803  	BTFSC STATUS,C
1179  2984  	GOTO	label288
117A  1383  	BCF STATUS,IRP
117B  1866  	BTFSC FCI_FLOAT__00041_arg_String+D'1',0
117C  1783  	BSF STATUS,IRP
117D  0865  	MOVF FCI_FLOAT__00041_arg_String, W
117E  076C  	ADDWF FCI_FLOAT__00041_1_stringidx, W
117F  0084  	MOVWF FSR
1180  302E  	MOVLW 0x2E
1181  0080  	MOVWF INDF
1182  0A6C  	INCF FCI_FLOAT__00041_1_stringidx, W
1183  00EC  	MOVWF FCI_FLOAT__00041_1_stringidx
1184        label288
1184  01EB  	CLRF FCI_FLOAT__00041_1_idx
1185        label289
1185  0864  	MOVF FCI_FLOAT__00041_arg_Precision, W
1186  026B  	SUBWF FCI_FLOAT__00041_1_idx, W
1187  1803  	BTFSC STATUS,C
1188  2A25  	GOTO	label291
1189  0867  	MOVF FCI_FLOAT__00041_arg_MSZ_String, W
118A  026C  	SUBWF FCI_FLOAT__00041_1_stringidx, W
118B  1803  	BTFSC STATUS,C
118C  2A25  	GOTO	label291
118D  086D  	MOVF FCI_FLOAT__00041_1_real, W
118E  1683  	BSF STATUS, RP0
118F  00A0  	MOVWF float32_mul_arg_a
1190  1283  	BCF STATUS, RP0
1191  086E  	MOVF FCI_FLOAT__00041_1_real+D'1', W
1192  1683  	BSF STATUS, RP0
1193  00A1  	MOVWF float32_mul_arg_a+D'1'
1194  1283  	BCF STATUS, RP0
1195  086F  	MOVF FCI_FLOAT__00041_1_real+D'2', W
1196  1683  	BSF STATUS, RP0
1197  00A2  	MOVWF float32_mul_arg_a+D'2'
1198  1283  	BCF STATUS, RP0
1199  0870  	MOVF FCI_FLOAT__00041_1_real+D'3', W
119A  1683  	BSF STATUS, RP0
119B  00A3  	MOVWF float32_mul_arg_a+D'3'
119C  01A4  	CLRF float32_mul_arg_b
119D  01A5  	CLRF float32_mul_arg_b+D'1'
119E  3020  	MOVLW 0x20
119F  00A6  	MOVWF float32_mul_arg_b+D'2'
11A0  3041  	MOVLW 0x41
11A1  00A7  	MOVWF float32_mul_arg_b+D'3'
11A2  120A  	BCF PCLATH,4
11A3  231A  	CALL float32_mul
11A4  0832  	MOVF CompTempVarRet1067, W
11A5  1283  	BCF STATUS, RP0
11A6  00ED  	MOVWF FCI_FLOAT__00041_1_real
11A7  1683  	BSF STATUS, RP0
11A8  0833  	MOVF CompTempVarRet1067+D'1', W
11A9  1283  	BCF STATUS, RP0
11AA  00EE  	MOVWF FCI_FLOAT__00041_1_real+D'1'
11AB  1683  	BSF STATUS, RP0
11AC  0834  	MOVF CompTempVarRet1067+D'2', W
11AD  1283  	BCF STATUS, RP0
11AE  00EF  	MOVWF FCI_FLOAT__00041_1_real+D'2'
11AF  1683  	BSF STATUS, RP0
11B0  0835  	MOVF CompTempVarRet1067+D'3', W
11B1  1283  	BCF STATUS, RP0
11B2  00F0  	MOVWF FCI_FLOAT__00041_1_real+D'3'
11B3  086D  	MOVF FCI_FLOAT__00041_1_real, W
11B4  1683  	BSF STATUS, RP0
11B5  00A0  	MOVWF float32_to_int32_arg_a
11B6  1283  	BCF STATUS, RP0
11B7  086E  	MOVF FCI_FLOAT__00041_1_real+D'1', W
11B8  1683  	BSF STATUS, RP0
11B9  00A1  	MOVWF float32_to_int32_arg_a+D'1'
11BA  1283  	BCF STATUS, RP0
11BB  086F  	MOVF FCI_FLOAT__00041_1_real+D'2', W
11BC  1683  	BSF STATUS, RP0
11BD  00A2  	MOVWF float32_to_int32_arg_a+D'2'
11BE  1283  	BCF STATUS, RP0
11BF  0870  	MOVF FCI_FLOAT__00041_1_real+D'3', W
11C0  1683  	BSF STATUS, RP0
11C1  00A3  	MOVWF float32_to_int32_arg_a+D'3'
11C2  158A  	BSF PCLATH,3
11C3  206C  	CALL float32_to_int32
11C4  082B  	MOVF CompTempVarRet850, W
11C5  1283  	BCF STATUS, RP0
11C6  00E8  	MOVWF FCI_FLOAT__00041_1_whole
11C7  1683  	BSF STATUS, RP0
11C8  082C  	MOVF CompTempVarRet850+D'1', W
11C9  1283  	BCF STATUS, RP0
11CA  00E9  	MOVWF FCI_FLOAT__00041_1_whole+D'1'
11CB  0868  	MOVF FCI_FLOAT__00041_1_whole, W
11CC  1683  	BSF STATUS, RP0
11CD  00A0  	MOVWF float32_from_int32_arg_a
11CE  1283  	BCF STATUS, RP0
11CF  0869  	MOVF FCI_FLOAT__00041_1_whole+D'1', W
11D0  1683  	BSF STATUS, RP0
11D1  00A1  	MOVWF float32_from_int32_arg_a+D'1'
11D2  01A2  	CLRF float32_from_int32_arg_a+D'2'
11D3  01A3  	CLRF float32_from_int32_arg_a+D'3'
11D4  1283  	BCF STATUS, RP0
11D5  118A  	BCF PCLATH,3
11D6  160A  	BSF PCLATH,4
11D7  1FE9  	BTFSS FCI_FLOAT__00041_1_whole+D'1',7
11D8  29DC  	GOTO	label290
11D9  1683  	BSF STATUS, RP0
11DA  03A2  	DECF float32_from_int32_arg_a+D'2', F
11DB  03A3  	DECF float32_from_int32_arg_a+D'3', F
11DC        label290
11DC  1683  	BSF STATUS, RP0
11DD  120A  	BCF PCLATH,4
11DE  24C1  	CALL float32_from_int32
11DF  0828  	MOVF CompTempVarRet813, W
11E0  00F1  	MOVWF FCI_FLOAT__00041_1_temp
11E1  0829  	MOVF CompTempVarRet813+D'1', W
11E2  00F2  	MOVWF FCI_FLOAT__00041_1_temp+D'1'
11E3  082A  	MOVF CompTempVarRet813+D'2', W
11E4  00F3  	MOVWF FCI_FLOAT__00041_1_temp+D'2'
11E5  082B  	MOVF CompTempVarRet813+D'3', W
11E6  00F4  	MOVWF FCI_FLOAT__00041_1_temp+D'3'
11E7  1283  	BCF STATUS, RP0
11E8  086D  	MOVF FCI_FLOAT__00041_1_real, W
11E9  1683  	BSF STATUS, RP0
11EA  00A0  	MOVWF float32_addsub_arg_a
11EB  1283  	BCF STATUS, RP0
11EC  086E  	MOVF FCI_FLOAT__00041_1_real+D'1', W
11ED  1683  	BSF STATUS, RP0
11EE  00A1  	MOVWF float32_addsub_arg_a+D'1'
11EF  1283  	BCF STATUS, RP0
11F0  086F  	MOVF FCI_FLOAT__00041_1_real+D'2', W
11F1  1683  	BSF STATUS, RP0
11F2  00A2  	MOVWF float32_addsub_arg_a+D'2'
11F3  1283  	BCF STATUS, RP0
11F4  0870  	MOVF FCI_FLOAT__00041_1_real+D'3', W
11F5  1683  	BSF STATUS, RP0
11F6  00A3  	MOVWF float32_addsub_arg_a+D'3'
11F7  0871  	MOVF FCI_FLOAT__00041_1_temp, W
11F8  00A4  	MOVWF float32_addsub_arg_b
11F9  0872  	MOVF FCI_FLOAT__00041_1_temp+D'1', W
11FA  00A5  	MOVWF float32_addsub_arg_b+D'1'
11FB  0873  	MOVF FCI_FLOAT__00041_1_temp+D'2', W
11FC  00A6  	MOVWF float32_addsub_arg_b+D'2'
11FD  0874  	MOVF FCI_FLOAT__00041_1_temp+D'3', W
11FE  00A7  	MOVWF float32_addsub_arg_b+D'3'
11FF  3001  	MOVLW 0x01
1200  00A8  	MOVWF float32_addsub_arg_subtract
1201  253C  	CALL float32_addsub
1202  0830  	MOVF CompTempVarRet1019, W
1203  1283  	BCF STATUS, RP0
1204  00ED  	MOVWF FCI_FLOAT__00041_1_real
1205  1683  	BSF STATUS, RP0
1206  0831  	MOVF CompTempVarRet1019+D'1', W
1207  1283  	BCF STATUS, RP0
1208  00EE  	MOVWF FCI_FLOAT__00041_1_real+D'1'
1209  1683  	BSF STATUS, RP0
120A  0832  	MOVF CompTempVarRet1019+D'2', W
120B  1283  	BCF STATUS, RP0
120C  00EF  	MOVWF FCI_FLOAT__00041_1_real+D'2'
120D  1683  	BSF STATUS, RP0
120E  0833  	MOVF CompTempVarRet1019+D'3', W
120F  1283  	BCF STATUS, RP0
1210  00F0  	MOVWF FCI_FLOAT__00041_1_real+D'3'
1211  0868  	MOVF FCI_FLOAT__00041_1_whole, W
1212  3E30  	ADDLW 0x30
1213  1683  	BSF STATUS, RP0
1214  00A0  	MOVWF CompTempVar2121
1215  1383  	BCF STATUS,IRP
1216  1283  	BCF STATUS, RP0
1217  1866  	BTFSC FCI_FLOAT__00041_arg_String+D'1',0
1218  1783  	BSF STATUS,IRP
1219  0865  	MOVF FCI_FLOAT__00041_arg_String, W
121A  076C  	ADDWF FCI_FLOAT__00041_1_stringidx, W
121B  0084  	MOVWF FSR
121C  1683  	BSF STATUS, RP0
121D  0820  	MOVF CompTempVar2121, W
121E  0080  	MOVWF INDF
121F  1283  	BCF STATUS, RP0
1220  0A6C  	INCF FCI_FLOAT__00041_1_stringidx, W
1221  00EC  	MOVWF FCI_FLOAT__00041_1_stringidx
1222  0AEB  	INCF FCI_FLOAT__00041_1_idx, F
1223  160A  	BSF PCLATH,4
1224  2985  	GOTO	label289
1225        label291
1225  0867  	MOVF FCI_FLOAT__00041_arg_MSZ_String, W
1226  026C  	SUBWF FCI_FLOAT__00041_1_stringidx, W
1227  1803  	BTFSC STATUS,C
1228  2A31  	GOTO	label292
1229  1383  	BCF STATUS,IRP
122A  1866  	BTFSC FCI_FLOAT__00041_arg_String+D'1',0
122B  1783  	BSF STATUS,IRP
122C  0865  	MOVF FCI_FLOAT__00041_arg_String, W
122D  076C  	ADDWF FCI_FLOAT__00041_1_stringidx, W
122E  0084  	MOVWF FSR
122F  3000  	MOVLW 0x00
1230  0080  	MOVWF INDF
1231        label292
1231  086C  	MOVF FCI_FLOAT__00041_1_stringidx, W
1232  1683  	BSF STATUS, RP0
1233  00A0  	MOVWF CompTempVarRet2110
1234  0008  	RETURN
1235        ; } FCI_FLOAT_TO_STRING function end

	ORG 0x00001235
1235        FCD_LCDDis_0004E
1235        ; { FCD_LCDDisplay0_Start ; function begin
1235  1683  	BSF STATUS, RP0
1236  1303  	BCF STATUS, RP1
1237  1006  	BCF gbl_trisb,0
1238  1086  	BCF gbl_trisb,1
1239  1106  	BCF gbl_trisb,2
123A  1186  	BCF gbl_trisb,3
123B  1206  	BCF gbl_trisb,4
123C  1286  	BCF gbl_trisb,5
123D  300C  	MOVLW 0x0C
123E  1283  	BCF STATUS, RP0
123F  00E2  	MOVWF Wdt_Delay__00047_arg_delay
1240  01E3  	CLRF Wdt_Delay__00047_arg_delay+D'1'
1241  120A  	BCF PCLATH,4
1242  2728  	CALL Wdt_Delay__00047
1243  3033  	MOVLW 0x33
1244  00F3  	MOVWF FCD_LCDDis_0004D_arg_in
1245  01F4  	CLRF FCD_LCDDis_0004D_arg_mask
1246  27E9  	CALL FCD_LCDDis_0004D
1247  3002  	MOVLW 0x02
1248  00E2  	MOVWF Wdt_Delay__00047_arg_delay
1249  01E3  	CLRF Wdt_Delay__00047_arg_delay+D'1'
124A  2728  	CALL Wdt_Delay__00047
124B  3033  	MOVLW 0x33
124C  00F3  	MOVWF FCD_LCDDis_0004D_arg_in
124D  01F4  	CLRF FCD_LCDDis_0004D_arg_mask
124E  27E9  	CALL FCD_LCDDis_0004D
124F  3002  	MOVLW 0x02
1250  00E2  	MOVWF Wdt_Delay__00047_arg_delay
1251  01E3  	CLRF Wdt_Delay__00047_arg_delay+D'1'
1252  2728  	CALL Wdt_Delay__00047
1253  3032  	MOVLW 0x32
1254  00F3  	MOVWF FCD_LCDDis_0004D_arg_in
1255  01F4  	CLRF FCD_LCDDis_0004D_arg_mask
1256  27E9  	CALL FCD_LCDDis_0004D
1257  3002  	MOVLW 0x02
1258  00E2  	MOVWF Wdt_Delay__00047_arg_delay
1259  01E3  	CLRF Wdt_Delay__00047_arg_delay+D'1'
125A  2728  	CALL Wdt_Delay__00047
125B  302C  	MOVLW 0x2C
125C  00F3  	MOVWF FCD_LCDDis_0004D_arg_in
125D  01F4  	CLRF FCD_LCDDis_0004D_arg_mask
125E  27E9  	CALL FCD_LCDDis_0004D
125F  3002  	MOVLW 0x02
1260  00E2  	MOVWF Wdt_Delay__00047_arg_delay
1261  01E3  	CLRF Wdt_Delay__00047_arg_delay+D'1'
1262  2728  	CALL Wdt_Delay__00047
1263  3006  	MOVLW 0x06
1264  00F3  	MOVWF FCD_LCDDis_0004D_arg_in
1265  01F4  	CLRF FCD_LCDDis_0004D_arg_mask
1266  27E9  	CALL FCD_LCDDis_0004D
1267  3002  	MOVLW 0x02
1268  00E2  	MOVWF Wdt_Delay__00047_arg_delay
1269  01E3  	CLRF Wdt_Delay__00047_arg_delay+D'1'
126A  2728  	CALL Wdt_Delay__00047
126B  300C  	MOVLW 0x0C
126C  00F3  	MOVWF FCD_LCDDis_0004D_arg_in
126D  01F4  	CLRF FCD_LCDDis_0004D_arg_mask
126E  27E9  	CALL FCD_LCDDis_0004D
126F  3002  	MOVLW 0x02
1270  00E2  	MOVWF Wdt_Delay__00047_arg_delay
1271  01E3  	CLRF Wdt_Delay__00047_arg_delay+D'1'
1272  2728  	CALL Wdt_Delay__00047
1273  3001  	MOVLW 0x01
1274  00F3  	MOVWF FCD_LCDDis_0004D_arg_in
1275  01F4  	CLRF FCD_LCDDis_0004D_arg_mask
1276  27E9  	CALL FCD_LCDDis_0004D
1277  3002  	MOVLW 0x02
1278  00E2  	MOVWF Wdt_Delay__00047_arg_delay
1279  01E3  	CLRF Wdt_Delay__00047_arg_delay+D'1'
127A  2728  	CALL Wdt_Delay__00047
127B  3002  	MOVLW 0x02
127C  00F3  	MOVWF FCD_LCDDis_0004D_arg_in
127D  01F4  	CLRF FCD_LCDDis_0004D_arg_mask
127E  27E9  	CALL FCD_LCDDis_0004D
127F  3002  	MOVLW 0x02
1280  00E2  	MOVWF Wdt_Delay__00047_arg_delay
1281  01E3  	CLRF Wdt_Delay__00047_arg_delay+D'1'
1282  2728  	CALL Wdt_Delay__00047
1283  0008  	RETURN
1284        ; } FCD_LCDDisplay0_Start function end

	ORG 0x00001284
1284        FCD_ADC1_R_0005F
1284        ; { FCD_ADC1_ReadAsVoltage ; function begin
1284  158A  	BSF PCLATH,3
1285  120A  	BCF PCLATH,4
1286  268C  	CALL FCD_ADC1_R_0005E
1287  0870  	MOVF CompTempVarRet2264, W
1288  00E0  	MOVWF FCD_ADC1_R_0005F_1_iSample
1289  0871  	MOVF CompTempVarRet2264+D'1', W
128A  00E1  	MOVWF FCD_ADC1_R_0005F_1_iSample+D'1'
128B  30F4  	MOVLW 0xF4
128C  1683  	BSF STATUS, RP0
128D  00A0  	MOVWF float32_from_int32_arg_a
128E  3001  	MOVLW 0x01
128F  00A1  	MOVWF float32_from_int32_arg_a+D'1'
1290  01A2  	CLRF float32_from_int32_arg_a+D'2'
1291  01A3  	CLRF float32_from_int32_arg_a+D'3'
1292  118A  	BCF PCLATH,3
1293  24C1  	CALL float32_from_int32
1294  0828  	MOVF CompTempVarRet813, W
1295  1283  	BCF STATUS, RP0
1296  00E6  	MOVWF FCD_ADC1_R_0005F_1_fVoltage
1297  1683  	BSF STATUS, RP0
1298  0829  	MOVF CompTempVarRet813+D'1', W
1299  1283  	BCF STATUS, RP0
129A  00E7  	MOVWF FCD_ADC1_R_0005F_1_fVoltage+D'1'
129B  1683  	BSF STATUS, RP0
129C  082A  	MOVF CompTempVarRet813+D'2', W
129D  1283  	BCF STATUS, RP0
129E  00E8  	MOVWF FCD_ADC1_R_0005F_1_fVoltage+D'2'
129F  1683  	BSF STATUS, RP0
12A0  082B  	MOVF CompTempVarRet813+D'3', W
12A1  1283  	BCF STATUS, RP0
12A2  00E9  	MOVWF FCD_ADC1_R_0005F_1_fVoltage+D'3'
12A3  0866  	MOVF FCD_ADC1_R_0005F_1_fVoltage, W
12A4  1683  	BSF STATUS, RP0
12A5  00A0  	MOVWF float32_mul_arg_a
12A6  1283  	BCF STATUS, RP0
12A7  0867  	MOVF FCD_ADC1_R_0005F_1_fVoltage+D'1', W
12A8  1683  	BSF STATUS, RP0
12A9  00A1  	MOVWF float32_mul_arg_a+D'1'
12AA  1283  	BCF STATUS, RP0
12AB  0868  	MOVF FCD_ADC1_R_0005F_1_fVoltage+D'2', W
12AC  1683  	BSF STATUS, RP0
12AD  00A2  	MOVWF float32_mul_arg_a+D'2'
12AE  1283  	BCF STATUS, RP0
12AF  0869  	MOVF FCD_ADC1_R_0005F_1_fVoltage+D'3', W
12B0  1683  	BSF STATUS, RP0
12B1  00A3  	MOVWF float32_mul_arg_a+D'3'
12B2  300A  	MOVLW 0x0A
12B3  00A4  	MOVWF float32_mul_arg_b
12B4  30D7  	MOVLW 0xD7
12B5  00A5  	MOVWF float32_mul_arg_b+D'1'
12B6  3023  	MOVLW 0x23
12B7  00A6  	MOVWF float32_mul_arg_b+D'2'
12B8  303C  	MOVLW 0x3C
12B9  00A7  	MOVWF float32_mul_arg_b+D'3'
12BA  231A  	CALL float32_mul
12BB  0832  	MOVF CompTempVarRet1067, W
12BC  1283  	BCF STATUS, RP0
12BD  00E6  	MOVWF FCD_ADC1_R_0005F_1_fVoltage
12BE  1683  	BSF STATUS, RP0
12BF  0833  	MOVF CompTempVarRet1067+D'1', W
12C0  1283  	BCF STATUS, RP0
12C1  00E7  	MOVWF FCD_ADC1_R_0005F_1_fVoltage+D'1'
12C2  1683  	BSF STATUS, RP0
12C3  0834  	MOVF CompTempVarRet1067+D'2', W
12C4  1283  	BCF STATUS, RP0
12C5  00E8  	MOVWF FCD_ADC1_R_0005F_1_fVoltage+D'2'
12C6  1683  	BSF STATUS, RP0
12C7  0835  	MOVF CompTempVarRet1067+D'3', W
12C8  1283  	BCF STATUS, RP0
12C9  00E9  	MOVWF FCD_ADC1_R_0005F_1_fVoltage+D'3'
12CA  0866  	MOVF FCD_ADC1_R_0005F_1_fVoltage, W
12CB  1683  	BSF STATUS, RP0
12CC  00A0  	MOVWF float32_mul_arg_a
12CD  1283  	BCF STATUS, RP0
12CE  0867  	MOVF FCD_ADC1_R_0005F_1_fVoltage+D'1', W
12CF  1683  	BSF STATUS, RP0
12D0  00A1  	MOVWF float32_mul_arg_a+D'1'
12D1  1283  	BCF STATUS, RP0
12D2  0868  	MOVF FCD_ADC1_R_0005F_1_fVoltage+D'2', W
12D3  1683  	BSF STATUS, RP0
12D4  00A2  	MOVWF float32_mul_arg_a+D'2'
12D5  1283  	BCF STATUS, RP0
12D6  0869  	MOVF FCD_ADC1_R_0005F_1_fVoltage+D'3', W
12D7  1683  	BSF STATUS, RP0
12D8  00A3  	MOVWF float32_mul_arg_a+D'3'
12D9  3040  	MOVLW 0x40
12DA  00A4  	MOVWF float32_mul_arg_b
12DB  30DA  	MOVLW 0xDA
12DC  00A5  	MOVWF float32_mul_arg_b+D'1'
12DD  307F  	MOVLW 0x7F
12DE  00A6  	MOVWF float32_mul_arg_b+D'2'
12DF  303A  	MOVLW 0x3A
12E0  00A7  	MOVWF float32_mul_arg_b+D'3'
12E1  231A  	CALL float32_mul
12E2  0832  	MOVF CompTempVarRet1067, W
12E3  1283  	BCF STATUS, RP0
12E4  00EA  	MOVWF FCD_ADC1_R_0005F_1_fVperDiv
12E5  1683  	BSF STATUS, RP0
12E6  0833  	MOVF CompTempVarRet1067+D'1', W
12E7  1283  	BCF STATUS, RP0
12E8  00EB  	MOVWF FCD_ADC1_R_0005F_1_fVperDiv+D'1'
12E9  1683  	BSF STATUS, RP0
12EA  0834  	MOVF CompTempVarRet1067+D'2', W
12EB  1283  	BCF STATUS, RP0
12EC  00EC  	MOVWF FCD_ADC1_R_0005F_1_fVperDiv+D'2'
12ED  1683  	BSF STATUS, RP0
12EE  0835  	MOVF CompTempVarRet1067+D'3', W
12EF  1283  	BCF STATUS, RP0
12F0  00ED  	MOVWF FCD_ADC1_R_0005F_1_fVperDiv+D'3'
12F1  0860  	MOVF FCD_ADC1_R_0005F_1_iSample, W
12F2  1683  	BSF STATUS, RP0
12F3  00A0  	MOVWF float32_from_int32_arg_a
12F4  1283  	BCF STATUS, RP0
12F5  0861  	MOVF FCD_ADC1_R_0005F_1_iSample+D'1', W
12F6  1683  	BSF STATUS, RP0
12F7  00A1  	MOVWF float32_from_int32_arg_a+D'1'
12F8  01A2  	CLRF float32_from_int32_arg_a+D'2'
12F9  01A3  	CLRF float32_from_int32_arg_a+D'3'
12FA  1283  	BCF STATUS, RP0
12FB  160A  	BSF PCLATH,4
12FC  1FE1  	BTFSS FCD_ADC1_R_0005F_1_iSample+D'1',7
12FD  2B01  	GOTO	label293
12FE  1683  	BSF STATUS, RP0
12FF  03A2  	DECF float32_from_int32_arg_a+D'2', F
1300  03A3  	DECF float32_from_int32_arg_a+D'3', F
1301        label293
1301  1683  	BSF STATUS, RP0
1302  120A  	BCF PCLATH,4
1303  24C1  	CALL float32_from_int32
1304  0828  	MOVF CompTempVarRet813, W
1305  1283  	BCF STATUS, RP0
1306  00E2  	MOVWF FCD_ADC1_R_0005F_1_fSample
1307  1683  	BSF STATUS, RP0
1308  0829  	MOVF CompTempVarRet813+D'1', W
1309  1283  	BCF STATUS, RP0
130A  00E3  	MOVWF FCD_ADC1_R_0005F_1_fSample+D'1'
130B  1683  	BSF STATUS, RP0
130C  082A  	MOVF CompTempVarRet813+D'2', W
130D  1283  	BCF STATUS, RP0
130E  00E4  	MOVWF FCD_ADC1_R_0005F_1_fSample+D'2'
130F  1683  	BSF STATUS, RP0
1310  082B  	MOVF CompTempVarRet813+D'3', W
1311  1283  	BCF STATUS, RP0
1312  00E5  	MOVWF FCD_ADC1_R_0005F_1_fSample+D'3'
1313  0862  	MOVF FCD_ADC1_R_0005F_1_fSample, W
1314  1683  	BSF STATUS, RP0
1315  00A0  	MOVWF float32_mul_arg_a
1316  1283  	BCF STATUS, RP0
1317  0863  	MOVF FCD_ADC1_R_0005F_1_fSample+D'1', W
1318  1683  	BSF STATUS, RP0
1319  00A1  	MOVWF float32_mul_arg_a+D'1'
131A  1283  	BCF STATUS, RP0
131B  0864  	MOVF FCD_ADC1_R_0005F_1_fSample+D'2', W
131C  1683  	BSF STATUS, RP0
131D  00A2  	MOVWF float32_mul_arg_a+D'2'
131E  1283  	BCF STATUS, RP0
131F  0865  	MOVF FCD_ADC1_R_0005F_1_fSample+D'3', W
1320  1683  	BSF STATUS, RP0
1321  00A3  	MOVWF float32_mul_arg_a+D'3'
1322  1283  	BCF STATUS, RP0
1323  086A  	MOVF FCD_ADC1_R_0005F_1_fVperDiv, W
1324  1683  	BSF STATUS, RP0
1325  00A4  	MOVWF float32_mul_arg_b
1326  1283  	BCF STATUS, RP0
1327  086B  	MOVF FCD_ADC1_R_0005F_1_fVperDiv+D'1', W
1328  1683  	BSF STATUS, RP0
1329  00A5  	MOVWF float32_mul_arg_b+D'1'
132A  1283  	BCF STATUS, RP0
132B  086C  	MOVF FCD_ADC1_R_0005F_1_fVperDiv+D'2', W
132C  1683  	BSF STATUS, RP0
132D  00A6  	MOVWF float32_mul_arg_b+D'2'
132E  1283  	BCF STATUS, RP0
132F  086D  	MOVF FCD_ADC1_R_0005F_1_fVperDiv+D'3', W
1330  1683  	BSF STATUS, RP0
1331  00A7  	MOVWF float32_mul_arg_b+D'3'
1332  231A  	CALL float32_mul
1333  0832  	MOVF CompTempVarRet1067, W
1334  1283  	BCF STATUS, RP0
1335  00E6  	MOVWF FCD_ADC1_R_0005F_1_fVoltage
1336  1683  	BSF STATUS, RP0
1337  0833  	MOVF CompTempVarRet1067+D'1', W
1338  1283  	BCF STATUS, RP0
1339  00E7  	MOVWF FCD_ADC1_R_0005F_1_fVoltage+D'1'
133A  1683  	BSF STATUS, RP0
133B  0834  	MOVF CompTempVarRet1067+D'2', W
133C  1283  	BCF STATUS, RP0
133D  00E8  	MOVWF FCD_ADC1_R_0005F_1_fVoltage+D'2'
133E  1683  	BSF STATUS, RP0
133F  0835  	MOVF CompTempVarRet1067+D'3', W
1340  1283  	BCF STATUS, RP0
1341  00E9  	MOVWF FCD_ADC1_R_0005F_1_fVoltage+D'3'
1342  0866  	MOVF FCD_ADC1_R_0005F_1_fVoltage, W
1343  00EE  	MOVWF CompTempVarRet2270
1344  0867  	MOVF FCD_ADC1_R_0005F_1_fVoltage+D'1', W
1345  00EF  	MOVWF CompTempVarRet2270+D'1'
1346  0868  	MOVF FCD_ADC1_R_0005F_1_fVoltage+D'2', W
1347  00F0  	MOVWF CompTempVarRet2270+D'2'
1348  0869  	MOVF FCD_ADC1_R_0005F_1_fVoltage+D'3', W
1349  00F1  	MOVWF CompTempVarRet2270+D'3'
134A  0008  	RETURN
134B        ; } FCD_ADC1_ReadAsVoltage function end

	ORG 0x0000134B
134B        FCD_ADC0_R_00059
134B        ; { FCD_ADC0_ReadAsVoltage ; function begin
134B  158A  	BSF PCLATH,3
134C  120A  	BCF PCLATH,4
134D  26A5  	CALL FCD_ADC0_R_00058
134E  0870  	MOVF CompTempVarRet2255, W
134F  00E0  	MOVWF FCD_ADC0_R_00059_1_iSample
1350  0871  	MOVF CompTempVarRet2255+D'1', W
1351  00E1  	MOVWF FCD_ADC0_R_00059_1_iSample+D'1'
1352  30F4  	MOVLW 0xF4
1353  1683  	BSF STATUS, RP0
1354  00A0  	MOVWF float32_from_int32_arg_a
1355  3001  	MOVLW 0x01
1356  00A1  	MOVWF float32_from_int32_arg_a+D'1'
1357  01A2  	CLRF float32_from_int32_arg_a+D'2'
1358  01A3  	CLRF float32_from_int32_arg_a+D'3'
1359  118A  	BCF PCLATH,3
135A  24C1  	CALL float32_from_int32
135B  0828  	MOVF CompTempVarRet813, W
135C  1283  	BCF STATUS, RP0
135D  00E6  	MOVWF FCD_ADC0_R_00059_1_fVoltage
135E  1683  	BSF STATUS, RP0
135F  0829  	MOVF CompTempVarRet813+D'1', W
1360  1283  	BCF STATUS, RP0
1361  00E7  	MOVWF FCD_ADC0_R_00059_1_fVoltage+D'1'
1362  1683  	BSF STATUS, RP0
1363  082A  	MOVF CompTempVarRet813+D'2', W
1364  1283  	BCF STATUS, RP0
1365  00E8  	MOVWF FCD_ADC0_R_00059_1_fVoltage+D'2'
1366  1683  	BSF STATUS, RP0
1367  082B  	MOVF CompTempVarRet813+D'3', W
1368  1283  	BCF STATUS, RP0
1369  00E9  	MOVWF FCD_ADC0_R_00059_1_fVoltage+D'3'
136A  0866  	MOVF FCD_ADC0_R_00059_1_fVoltage, W
136B  1683  	BSF STATUS, RP0
136C  00A0  	MOVWF float32_mul_arg_a
136D  1283  	BCF STATUS, RP0
136E  0867  	MOVF FCD_ADC0_R_00059_1_fVoltage+D'1', W
136F  1683  	BSF STATUS, RP0
1370  00A1  	MOVWF float32_mul_arg_a+D'1'
1371  1283  	BCF STATUS, RP0
1372  0868  	MOVF FCD_ADC0_R_00059_1_fVoltage+D'2', W
1373  1683  	BSF STATUS, RP0
1374  00A2  	MOVWF float32_mul_arg_a+D'2'
1375  1283  	BCF STATUS, RP0
1376  0869  	MOVF FCD_ADC0_R_00059_1_fVoltage+D'3', W
1377  1683  	BSF STATUS, RP0
1378  00A3  	MOVWF float32_mul_arg_a+D'3'
1379  300A  	MOVLW 0x0A
137A  00A4  	MOVWF float32_mul_arg_b
137B  30D7  	MOVLW 0xD7
137C  00A5  	MOVWF float32_mul_arg_b+D'1'
137D  3023  	MOVLW 0x23
137E  00A6  	MOVWF float32_mul_arg_b+D'2'
137F  303C  	MOVLW 0x3C
1380  00A7  	MOVWF float32_mul_arg_b+D'3'
1381  231A  	CALL float32_mul
1382  0832  	MOVF CompTempVarRet1067, W
1383  1283  	BCF STATUS, RP0
1384  00E6  	MOVWF FCD_ADC0_R_00059_1_fVoltage
1385  1683  	BSF STATUS, RP0
1386  0833  	MOVF CompTempVarRet1067+D'1', W
1387  1283  	BCF STATUS, RP0
1388  00E7  	MOVWF FCD_ADC0_R_00059_1_fVoltage+D'1'
1389  1683  	BSF STATUS, RP0
138A  0834  	MOVF CompTempVarRet1067+D'2', W
138B  1283  	BCF STATUS, RP0
138C  00E8  	MOVWF FCD_ADC0_R_00059_1_fVoltage+D'2'
138D  1683  	BSF STATUS, RP0
138E  0835  	MOVF CompTempVarRet1067+D'3', W
138F  1283  	BCF STATUS, RP0
1390  00E9  	MOVWF FCD_ADC0_R_00059_1_fVoltage+D'3'
1391  0866  	MOVF FCD_ADC0_R_00059_1_fVoltage, W
1392  1683  	BSF STATUS, RP0
1393  00A0  	MOVWF float32_mul_arg_a
1394  1283  	BCF STATUS, RP0
1395  0867  	MOVF FCD_ADC0_R_00059_1_fVoltage+D'1', W
1396  1683  	BSF STATUS, RP0
1397  00A1  	MOVWF float32_mul_arg_a+D'1'
1398  1283  	BCF STATUS, RP0
1399  0868  	MOVF FCD_ADC0_R_00059_1_fVoltage+D'2', W
139A  1683  	BSF STATUS, RP0
139B  00A2  	MOVWF float32_mul_arg_a+D'2'
139C  1283  	BCF STATUS, RP0
139D  0869  	MOVF FCD_ADC0_R_00059_1_fVoltage+D'3', W
139E  1683  	BSF STATUS, RP0
139F  00A3  	MOVWF float32_mul_arg_a+D'3'
13A0  3040  	MOVLW 0x40
13A1  00A4  	MOVWF float32_mul_arg_b
13A2  30DA  	MOVLW 0xDA
13A3  00A5  	MOVWF float32_mul_arg_b+D'1'
13A4  307F  	MOVLW 0x7F
13A5  00A6  	MOVWF float32_mul_arg_b+D'2'
13A6  303A  	MOVLW 0x3A
13A7  00A7  	MOVWF float32_mul_arg_b+D'3'
13A8  231A  	CALL float32_mul
13A9  0832  	MOVF CompTempVarRet1067, W
13AA  1283  	BCF STATUS, RP0
13AB  00EA  	MOVWF FCD_ADC0_R_00059_1_fVperDiv
13AC  1683  	BSF STATUS, RP0
13AD  0833  	MOVF CompTempVarRet1067+D'1', W
13AE  1283  	BCF STATUS, RP0
13AF  00EB  	MOVWF FCD_ADC0_R_00059_1_fVperDiv+D'1'
13B0  1683  	BSF STATUS, RP0
13B1  0834  	MOVF CompTempVarRet1067+D'2', W
13B2  1283  	BCF STATUS, RP0
13B3  00EC  	MOVWF FCD_ADC0_R_00059_1_fVperDiv+D'2'
13B4  1683  	BSF STATUS, RP0
13B5  0835  	MOVF CompTempVarRet1067+D'3', W
13B6  1283  	BCF STATUS, RP0
13B7  00ED  	MOVWF FCD_ADC0_R_00059_1_fVperDiv+D'3'
13B8  0860  	MOVF FCD_ADC0_R_00059_1_iSample, W
13B9  1683  	BSF STATUS, RP0
13BA  00A0  	MOVWF float32_from_int32_arg_a
13BB  1283  	BCF STATUS, RP0
13BC  0861  	MOVF FCD_ADC0_R_00059_1_iSample+D'1', W
13BD  1683  	BSF STATUS, RP0
13BE  00A1  	MOVWF float32_from_int32_arg_a+D'1'
13BF  01A2  	CLRF float32_from_int32_arg_a+D'2'
13C0  01A3  	CLRF float32_from_int32_arg_a+D'3'
13C1  1283  	BCF STATUS, RP0
13C2  160A  	BSF PCLATH,4
13C3  1FE1  	BTFSS FCD_ADC0_R_00059_1_iSample+D'1',7
13C4  2BC8  	GOTO	label294
13C5  1683  	BSF STATUS, RP0
13C6  03A2  	DECF float32_from_int32_arg_a+D'2', F
13C7  03A3  	DECF float32_from_int32_arg_a+D'3', F
13C8        label294
13C8  1683  	BSF STATUS, RP0
13C9  120A  	BCF PCLATH,4
13CA  24C1  	CALL float32_from_int32
13CB  0828  	MOVF CompTempVarRet813, W
13CC  1283  	BCF STATUS, RP0
13CD  00E2  	MOVWF FCD_ADC0_R_00059_1_fSample
13CE  1683  	BSF STATUS, RP0
13CF  0829  	MOVF CompTempVarRet813+D'1', W
13D0  1283  	BCF STATUS, RP0
13D1  00E3  	MOVWF FCD_ADC0_R_00059_1_fSample+D'1'
13D2  1683  	BSF STATUS, RP0
13D3  082A  	MOVF CompTempVarRet813+D'2', W
13D4  1283  	BCF STATUS, RP0
13D5  00E4  	MOVWF FCD_ADC0_R_00059_1_fSample+D'2'
13D6  1683  	BSF STATUS, RP0
13D7  082B  	MOVF CompTempVarRet813+D'3', W
13D8  1283  	BCF STATUS, RP0
13D9  00E5  	MOVWF FCD_ADC0_R_00059_1_fSample+D'3'
13DA  0862  	MOVF FCD_ADC0_R_00059_1_fSample, W
13DB  1683  	BSF STATUS, RP0
13DC  00A0  	MOVWF float32_mul_arg_a
13DD  1283  	BCF STATUS, RP0
13DE  0863  	MOVF FCD_ADC0_R_00059_1_fSample+D'1', W
13DF  1683  	BSF STATUS, RP0
13E0  00A1  	MOVWF float32_mul_arg_a+D'1'
13E1  1283  	BCF STATUS, RP0
13E2  0864  	MOVF FCD_ADC0_R_00059_1_fSample+D'2', W
13E3  1683  	BSF STATUS, RP0
13E4  00A2  	MOVWF float32_mul_arg_a+D'2'
13E5  1283  	BCF STATUS, RP0
13E6  0865  	MOVF FCD_ADC0_R_00059_1_fSample+D'3', W
13E7  1683  	BSF STATUS, RP0
13E8  00A3  	MOVWF float32_mul_arg_a+D'3'
13E9  1283  	BCF STATUS, RP0
13EA  086A  	MOVF FCD_ADC0_R_00059_1_fVperDiv, W
13EB  1683  	BSF STATUS, RP0
13EC  00A4  	MOVWF float32_mul_arg_b
13ED  1283  	BCF STATUS, RP0
13EE  086B  	MOVF FCD_ADC0_R_00059_1_fVperDiv+D'1', W
13EF  1683  	BSF STATUS, RP0
13F0  00A5  	MOVWF float32_mul_arg_b+D'1'
13F1  1283  	BCF STATUS, RP0
13F2  086C  	MOVF FCD_ADC0_R_00059_1_fVperDiv+D'2', W
13F3  1683  	BSF STATUS, RP0
13F4  00A6  	MOVWF float32_mul_arg_b+D'2'
13F5  1283  	BCF STATUS, RP0
13F6  086D  	MOVF FCD_ADC0_R_00059_1_fVperDiv+D'3', W
13F7  1683  	BSF STATUS, RP0
13F8  00A7  	MOVWF float32_mul_arg_b+D'3'
13F9  231A  	CALL float32_mul
13FA  0832  	MOVF CompTempVarRet1067, W
13FB  1283  	BCF STATUS, RP0
13FC  00E6  	MOVWF FCD_ADC0_R_00059_1_fVoltage
13FD  1683  	BSF STATUS, RP0
13FE  0833  	MOVF CompTempVarRet1067+D'1', W
13FF  1283  	BCF STATUS, RP0
1400  00E7  	MOVWF FCD_ADC0_R_00059_1_fVoltage+D'1'
1401  1683  	BSF STATUS, RP0
1402  0834  	MOVF CompTempVarRet1067+D'2', W
1403  1283  	BCF STATUS, RP0
1404  00E8  	MOVWF FCD_ADC0_R_00059_1_fVoltage+D'2'
1405  1683  	BSF STATUS, RP0
1406  0835  	MOVF CompTempVarRet1067+D'3', W
1407  1283  	BCF STATUS, RP0
1408  00E9  	MOVWF FCD_ADC0_R_00059_1_fVoltage+D'3'
1409  0866  	MOVF FCD_ADC0_R_00059_1_fVoltage, W
140A  00EE  	MOVWF CompTempVarRet2261
140B  0867  	MOVF FCD_ADC0_R_00059_1_fVoltage+D'1', W
140C  00EF  	MOVWF CompTempVarRet2261+D'1'
140D  0868  	MOVF FCD_ADC0_R_00059_1_fVoltage+D'2', W
140E  00F0  	MOVWF CompTempVarRet2261+D'2'
140F  0869  	MOVF FCD_ADC0_R_00059_1_fVoltage+D'3', W
1410  00F1  	MOVWF CompTempVarRet2261+D'3'
1411  0008  	RETURN
1412        ; } FCD_ADC0_ReadAsVoltage function end

	ORG 0x00001412
1412        main
1412        ; { main ; function begin
1412  3007  	MOVLW 0x07
1413  1683  	BSF STATUS, RP0
1414  1303  	BCF STATUS, RP1
1415  009F  	MOVWF gbl_adcon1
1416  3004  	MOVLW 0x04
1417  0098  	MOVWF gbl_txsta
1418  3040  	MOVLW 0x40
1419  0099  	MOVWF gbl_spbrg
141A  1283  	BCF STATUS, RP0
141B  0198  	CLRF gbl_rcsta
141C  1798  	BSF gbl_rcsta,7
141D  30C0  	MOVLW 0xC0
141E  1683  	BSF STATUS, RP0
141F  0081  	MOVWF gbl_option_reg
1420  0188  	CLRF gbl_trisd
1421  1283  	BCF STATUS, RP0
1422  0188  	CLRF gbl_portd
1423  2235  	CALL FCD_LCDDis_0004E
1424  158A  	BSF PCLATH,3
1425  267A  	CALL FCD_LCDDis_0004A
1426  3041  	MOVLW 0x41
1427  00E8  	MOVWF CompTempVar2283+D'6'
1428  00EB  	MOVWF CompTempVar2283+D'9'
1429  3043  	MOVLW 0x43
142A  00E2  	MOVWF CompTempVar2283
142B  3045  	MOVLW 0x45
142C  00E3  	MOVWF CompTempVar2283+D'1'
142D  00E6  	MOVWF CompTempVar2283+D'4'
142E  3049  	MOVLW 0x49
142F  00EA  	MOVWF CompTempVar2283+D'8'
1430  304A  	MOVLW 0x4A
1431  00E7  	MOVWF CompTempVar2283+D'5'
1432  3052  	MOVLW 0x52
1433  00E4  	MOVWF CompTempVar2283+D'2'
1434  00E9  	MOVWF CompTempVar2283+D'7'
1435  3056  	MOVLW 0x56
1436  00E5  	MOVWF CompTempVar2283+D'3'
1437  01EC  	CLRF CompTempVar2283+D'10'
1438  3000  	MOVLW HIGH(CompTempVar2283+D'0')
1439  00E1  	MOVWF FCD_LCDDis_0004B_arg_String+D'1'
143A  3062  	MOVLW LOW(CompTempVar2283+D'0')
143B  00E0  	MOVWF FCD_LCDDis_0004B_arg_String
143C  300A  	MOVLW 0x0A
143D  00F1  	MOVWF FCD_LCDDis_0004B_arg_MSZ_String
143E  158A  	BSF PCLATH,3
143F  265A  	CALL FCD_LCDDis_0004B
1440  3001  	MOVLW 0x01
1441  1283  	BCF STATUS, RP0
1442  1303  	BCF STATUS, RP1
1443  00E0  	MOVWF delay_s_00000_arg_del
1444  118A  	BCF PCLATH,3
1445  2040  	CALL delay_s_00000
1446  158A  	BSF PCLATH,3
1447  267A  	CALL FCD_LCDDis_0004A
1448        label295
1448  160A  	BSF PCLATH,4
1449  234B  	CALL FCD_ADC0_R_00059
144A  086E  	MOVF CompTempVarRet2261, W
144B  00CC  	MOVWF gbl_FCV_MOST_REAL
144C  086F  	MOVF CompTempVarRet2261+D'1', W
144D  00CD  	MOVWF gbl_FCV_MOST_REAL+D'1'
144E  0870  	MOVF CompTempVarRet2261+D'2', W
144F  00CE  	MOVWF gbl_FCV_MOST_REAL+D'2'
1450  0871  	MOVF CompTempVarRet2261+D'3', W
1451  00CF  	MOVWF gbl_FCV_MOST_REAL+D'3'
1452  084C  	MOVF gbl_FCV_MOST_REAL, W
1453  1683  	BSF STATUS, RP0
1454  00A0  	MOVWF float32_mul_arg_a
1455  1283  	BCF STATUS, RP0
1456  084D  	MOVF gbl_FCV_MOST_REAL+D'1', W
1457  1683  	BSF STATUS, RP0
1458  00A1  	MOVWF float32_mul_arg_a+D'1'
1459  1283  	BCF STATUS, RP0
145A  084E  	MOVF gbl_FCV_MOST_REAL+D'2', W
145B  1683  	BSF STATUS, RP0
145C  00A2  	MOVWF float32_mul_arg_a+D'2'
145D  1283  	BCF STATUS, RP0
145E  084F  	MOVF gbl_FCV_MOST_REAL+D'3', W
145F  1683  	BSF STATUS, RP0
1460  00A3  	MOVWF float32_mul_arg_a+D'3'
1461  01A4  	CLRF float32_mul_arg_b
1462  01A5  	CLRF float32_mul_arg_b+D'1'
1463  3048  	MOVLW 0x48
1464  00A6  	MOVWF float32_mul_arg_b+D'2'
1465  3042  	MOVLW 0x42
1466  00A7  	MOVWF float32_mul_arg_b+D'3'
1467  231A  	CALL float32_mul
1468  0832  	MOVF CompTempVarRet1067, W
1469  1283  	BCF STATUS, RP0
146A  00B4  	MOVWF gbl_FCV_AUX
146B  1683  	BSF STATUS, RP0
146C  0833  	MOVF CompTempVarRet1067+D'1', W
146D  1283  	BCF STATUS, RP0
146E  00B5  	MOVWF gbl_FCV_AUX+D'1'
146F  1683  	BSF STATUS, RP0
1470  0834  	MOVF CompTempVarRet1067+D'2', W
1471  1283  	BCF STATUS, RP0
1472  00B6  	MOVWF gbl_FCV_AUX+D'2'
1473  1683  	BSF STATUS, RP0
1474  0835  	MOVF CompTempVarRet1067+D'3', W
1475  1283  	BCF STATUS, RP0
1476  00B7  	MOVWF gbl_FCV_AUX+D'3'
1477  0834  	MOVF gbl_FCV_AUX, W
1478  00E0  	MOVWF FCI_FLOAT__00041_arg_Number
1479  0835  	MOVF gbl_FCV_AUX+D'1', W
147A  00E1  	MOVWF FCI_FLOAT__00041_arg_Number+D'1'
147B  0836  	MOVF gbl_FCV_AUX+D'2', W
147C  00E2  	MOVWF FCI_FLOAT__00041_arg_Number+D'2'
147D  0837  	MOVF gbl_FCV_AUX+D'3', W
147E  00E3  	MOVWF FCI_FLOAT__00041_arg_Number+D'3'
147F  3006  	MOVLW 0x06
1480  00E4  	MOVWF FCI_FLOAT__00041_arg_Precision
1481  3000  	MOVLW HIGH(gbl_FCV_MOST+D'0')
1482  00E6  	MOVWF FCI_FLOAT__00041_arg_String+D'1'
1483  3040  	MOVLW LOW(gbl_FCV_MOST+D'0')
1484  00E5  	MOVWF FCI_FLOAT__00041_arg_String
1485  3004  	MOVLW 0x04
1486  00E7  	MOVWF FCI_FLOAT__00041_arg_MSZ_String
1487  160A  	BSF PCLATH,4
1488  2082  	CALL FCI_FLOAT__00041
1489  1283  	BCF STATUS, RP0
148A  01B4  	CLRF gbl_FCV_AUX
148B  01B5  	CLRF gbl_FCV_AUX+D'1'
148C  01B6  	CLRF gbl_FCV_AUX+D'2'
148D  01B7  	CLRF gbl_FCV_AUX+D'3'
148E  01E0  	CLRF FCD_LCDDis_0004C_arg_x
148F  01E1  	CLRF FCD_LCDDis_0004C_arg_y
1490  158A  	BSF PCLATH,3
1491  120A  	BCF PCLATH,4
1492  2647  	CALL FCD_LCDDis_0004C
1493  304D  	MOVLW 0x4D
1494  00E2  	MOVWF CompTempVar2286
1495  304F  	MOVLW 0x4F
1496  00E3  	MOVWF CompTempVar2286+D'1'
1497  3053  	MOVLW 0x53
1498  00E4  	MOVWF CompTempVar2286+D'2'
1499  3054  	MOVLW 0x54
149A  00E5  	MOVWF CompTempVar2286+D'3'
149B  303A  	MOVLW 0x3A
149C  00E6  	MOVWF CompTempVar2286+D'4'
149D  01E7  	CLRF CompTempVar2286+D'5'
149E  3000  	MOVLW HIGH(CompTempVar2286+D'0')
149F  00E1  	MOVWF FCD_LCDDis_0004B_arg_String+D'1'
14A0  3062  	MOVLW LOW(CompTempVar2286+D'0')
14A1  00E0  	MOVWF FCD_LCDDis_0004B_arg_String
14A2  3005  	MOVLW 0x05
14A3  00F1  	MOVWF FCD_LCDDis_0004B_arg_MSZ_String
14A4  158A  	BSF PCLATH,3
14A5  265A  	CALL FCD_LCDDis_0004B
14A6  3005  	MOVLW 0x05
14A7  1283  	BCF STATUS, RP0
14A8  1303  	BCF STATUS, RP1
14A9  00E0  	MOVWF FCD_LCDDis_0004C_arg_x
14AA  01E1  	CLRF FCD_LCDDis_0004C_arg_y
14AB  2647  	CALL FCD_LCDDis_0004C
14AC  3000  	MOVLW HIGH(gbl_FCV_MOST+D'0')
14AD  00E1  	MOVWF FCD_LCDDis_0004B_arg_String+D'1'
14AE  3040  	MOVLW LOW(gbl_FCV_MOST+D'0')
14AF  00E0  	MOVWF FCD_LCDDis_0004B_arg_String
14B0  3004  	MOVLW 0x04
14B1  00F1  	MOVWF FCD_LCDDis_0004B_arg_MSZ_String
14B2  158A  	BSF PCLATH,3
14B3  265A  	CALL FCD_LCDDis_0004B
14B4  3009  	MOVLW 0x09
14B5  1283  	BCF STATUS, RP0
14B6  1303  	BCF STATUS, RP1
14B7  00E0  	MOVWF FCD_LCDDis_0004C_arg_x
14B8  01E1  	CLRF FCD_LCDDis_0004C_arg_y
14B9  2647  	CALL FCD_LCDDis_0004C
14BA  306F  	MOVLW 0x6F
14BB  00E2  	MOVWF CompTempVar2289
14BC  3043  	MOVLW 0x43
14BD  00E3  	MOVWF CompTempVar2289+D'1'
14BE  01E4  	CLRF CompTempVar2289+D'2'
14BF  3000  	MOVLW HIGH(CompTempVar2289+D'0')
14C0  00E1  	MOVWF FCD_LCDDis_0004B_arg_String+D'1'
14C1  3062  	MOVLW LOW(CompTempVar2289+D'0')
14C2  00E0  	MOVWF FCD_LCDDis_0004B_arg_String
14C3  3002  	MOVLW 0x02
14C4  00F1  	MOVWF FCD_LCDDis_0004B_arg_MSZ_String
14C5  158A  	BSF PCLATH,3
14C6  265A  	CALL FCD_LCDDis_0004B
14C7  118A  	BCF PCLATH,3
14C8  160A  	BSF PCLATH,4
14C9  2284  	CALL FCD_ADC1_R_0005F
14CA  086E  	MOVF CompTempVarRet2270, W
14CB  00C8  	MOVWF gbl_FCV_FERV_REAL
14CC  086F  	MOVF CompTempVarRet2270+D'1', W
14CD  00C9  	MOVWF gbl_FCV_FERV_REAL+D'1'
14CE  0870  	MOVF CompTempVarRet2270+D'2', W
14CF  00CA  	MOVWF gbl_FCV_FERV_REAL+D'2'
14D0  0871  	MOVF CompTempVarRet2270+D'3', W
14D1  00CB  	MOVWF gbl_FCV_FERV_REAL+D'3'
14D2  0848  	MOVF gbl_FCV_FERV_REAL, W
14D3  1683  	BSF STATUS, RP0
14D4  00A0  	MOVWF float32_mul_arg_a
14D5  1283  	BCF STATUS, RP0
14D6  0849  	MOVF gbl_FCV_FERV_REAL+D'1', W
14D7  1683  	BSF STATUS, RP0
14D8  00A1  	MOVWF float32_mul_arg_a+D'1'
14D9  1283  	BCF STATUS, RP0
14DA  084A  	MOVF gbl_FCV_FERV_REAL+D'2', W
14DB  1683  	BSF STATUS, RP0
14DC  00A2  	MOVWF float32_mul_arg_a+D'2'
14DD  1283  	BCF STATUS, RP0
14DE  084B  	MOVF gbl_FCV_FERV_REAL+D'3', W
14DF  1683  	BSF STATUS, RP0
14E0  00A3  	MOVWF float32_mul_arg_a+D'3'
14E1  01A4  	CLRF float32_mul_arg_b
14E2  01A5  	CLRF float32_mul_arg_b+D'1'
14E3  3048  	MOVLW 0x48
14E4  00A6  	MOVWF float32_mul_arg_b+D'2'
14E5  3042  	MOVLW 0x42
14E6  00A7  	MOVWF float32_mul_arg_b+D'3'
14E7  231A  	CALL float32_mul
14E8  0832  	MOVF CompTempVarRet1067, W
14E9  1283  	BCF STATUS, RP0
14EA  00B4  	MOVWF gbl_FCV_AUX
14EB  1683  	BSF STATUS, RP0
14EC  0833  	MOVF CompTempVarRet1067+D'1', W
14ED  1283  	BCF STATUS, RP0
14EE  00B5  	MOVWF gbl_FCV_AUX+D'1'
14EF  1683  	BSF STATUS, RP0
14F0  0834  	MOVF CompTempVarRet1067+D'2', W
14F1  1283  	BCF STATUS, RP0
14F2  00B6  	MOVWF gbl_FCV_AUX+D'2'
14F3  1683  	BSF STATUS, RP0
14F4  0835  	MOVF CompTempVarRet1067+D'3', W
14F5  1283  	BCF STATUS, RP0
14F6  00B7  	MOVWF gbl_FCV_AUX+D'3'
14F7  0834  	MOVF gbl_FCV_AUX, W
14F8  00E0  	MOVWF FCI_FLOAT__00041_arg_Number
14F9  0835  	MOVF gbl_FCV_AUX+D'1', W
14FA  00E1  	MOVWF FCI_FLOAT__00041_arg_Number+D'1'
14FB  0836  	MOVF gbl_FCV_AUX+D'2', W
14FC  00E2  	MOVWF FCI_FLOAT__00041_arg_Number+D'2'
14FD  0837  	MOVF gbl_FCV_AUX+D'3', W
14FE  00E3  	MOVWF FCI_FLOAT__00041_arg_Number+D'3'
14FF  3006  	MOVLW 0x06
1500  00E4  	MOVWF FCI_FLOAT__00041_arg_Precision
1501  3000  	MOVLW HIGH(gbl_FCV_FERV+D'0')
1502  00E6  	MOVWF FCI_FLOAT__00041_arg_String+D'1'
1503  3044  	MOVLW LOW(gbl_FCV_FERV+D'0')
1504  00E5  	MOVWF FCI_FLOAT__00041_arg_String
1505  3004  	MOVLW 0x04
1506  00E7  	MOVWF FCI_FLOAT__00041_arg_MSZ_String
1507  160A  	BSF PCLATH,4
1508  2082  	CALL FCI_FLOAT__00041
1509  1283  	BCF STATUS, RP0
150A  01B4  	CLRF gbl_FCV_AUX
150B  01B5  	CLRF gbl_FCV_AUX+D'1'
150C  01B6  	CLRF gbl_FCV_AUX+D'2'
150D  01B7  	CLRF gbl_FCV_AUX+D'3'
150E  01E0  	CLRF FCD_LCDDis_0004C_arg_x
150F  3001  	MOVLW 0x01
1510  00E1  	MOVWF FCD_LCDDis_0004C_arg_y
1511  158A  	BSF PCLATH,3
1512  120A  	BCF PCLATH,4
1513  2647  	CALL FCD_LCDDis_0004C
1514  3046  	MOVLW 0x46
1515  00E2  	MOVWF CompTempVar2292
1516  3045  	MOVLW 0x45
1517  00E3  	MOVWF CompTempVar2292+D'1'
1518  3052  	MOVLW 0x52
1519  00E4  	MOVWF CompTempVar2292+D'2'
151A  3056  	MOVLW 0x56
151B  00E5  	MOVWF CompTempVar2292+D'3'
151C  303A  	MOVLW 0x3A
151D  00E6  	MOVWF CompTempVar2292+D'4'
151E  01E7  	CLRF CompTempVar2292+D'5'
151F  3000  	MOVLW HIGH(CompTempVar2292+D'0')
1520  00E1  	MOVWF FCD_LCDDis_0004B_arg_String+D'1'
1521  3062  	MOVLW LOW(CompTempVar2292+D'0')
1522  00E0  	MOVWF FCD_LCDDis_0004B_arg_String
1523  3005  	MOVLW 0x05
1524  00F1  	MOVWF FCD_LCDDis_0004B_arg_MSZ_String
1525  158A  	BSF PCLATH,3
1526  265A  	CALL FCD_LCDDis_0004B
1527  3005  	MOVLW 0x05
1528  1283  	BCF STATUS, RP0
1529  1303  	BCF STATUS, RP1
152A  00E0  	MOVWF FCD_LCDDis_0004C_arg_x
152B  3001  	MOVLW 0x01
152C  00E1  	MOVWF FCD_LCDDis_0004C_arg_y
152D  2647  	CALL FCD_LCDDis_0004C
152E  3000  	MOVLW HIGH(gbl_FCV_FERV+D'0')
152F  00E1  	MOVWF FCD_LCDDis_0004B_arg_String+D'1'
1530  3044  	MOVLW LOW(gbl_FCV_FERV+D'0')
1531  00E0  	MOVWF FCD_LCDDis_0004B_arg_String
1532  3004  	MOVLW 0x04
1533  00F1  	MOVWF FCD_LCDDis_0004B_arg_MSZ_String
1534  158A  	BSF PCLATH,3
1535  265A  	CALL FCD_LCDDis_0004B
1536  3009  	MOVLW 0x09
1537  1283  	BCF STATUS, RP0
1538  1303  	BCF STATUS, RP1
1539  00E0  	MOVWF FCD_LCDDis_0004C_arg_x
153A  3001  	MOVLW 0x01
153B  00E1  	MOVWF FCD_LCDDis_0004C_arg_y
153C  2647  	CALL FCD_LCDDis_0004C
153D  306F  	MOVLW 0x6F
153E  00E2  	MOVWF CompTempVar2295
153F  3043  	MOVLW 0x43
1540  00E3  	MOVWF CompTempVar2295+D'1'
1541  01E4  	CLRF CompTempVar2295+D'2'
1542  3000  	MOVLW HIGH(CompTempVar2295+D'0')
1543  00E1  	MOVWF FCD_LCDDis_0004B_arg_String+D'1'
1544  3062  	MOVLW LOW(CompTempVar2295+D'0')
1545  00E0  	MOVWF FCD_LCDDis_0004B_arg_String
1546  3002  	MOVLW 0x02
1547  00F1  	MOVWF FCD_LCDDis_0004B_arg_MSZ_String
1548  158A  	BSF PCLATH,3
1549  265A  	CALL FCD_LCDDis_0004B
154A  26BE  	CALL FCM_RS232_00000
154B  160A  	BSF PCLATH,4
154C  2C48  	GOTO	label295
154D        ; } main function end

	ORG 0x0000154D
154D        _startup
154D  30D5  	MOVLW 0xD5
154E  1283  	BCF STATUS, RP0
154F  1303  	BCF STATUS, RP1
1550  00A0  	MOVWF gbl_16_LSR
1551  30C4  	MOVLW 0xC4
1552  00A1  	MOVWF gbl_16_LSR+D'1'
1553  30BB  	MOVLW 0xBB
1554  00A2  	MOVWF gbl_16_LSR+D'2'
1555  30DC  	MOVLW 0xDC
1556  00A3  	MOVWF gbl_16_LSR+D'3'
1557  01A4  	CLRF gbl_17_gbl_aSig
1558  01A5  	CLRF gbl_17_gbl_aSig+D'1'
1559  01A6  	CLRF gbl_17_gbl_aSig+D'2'
155A  01A7  	CLRF gbl_17_gbl_aSig+D'3'
155B  01A8  	CLRF gbl_17_gbl_bSig
155C  01A9  	CLRF gbl_17_gbl_bSig+D'1'
155D  01AA  	CLRF gbl_17_gbl_bSig+D'2'
155E  01AB  	CLRF gbl_17_gbl_bSig+D'3'
155F  01AC  	CLRF gbl_17_gbl_zSig
1560  01AD  	CLRF gbl_17_gbl_zSig+D'1'
1561  01AE  	CLRF gbl_17_gbl_zSig+D'2'
1562  01AF  	CLRF gbl_17_gbl_zSig+D'3'
1563  01DA  	CLRF gbl_17_gbl_aExp
1564  01DB  	CLRF gbl_17_gbl_bExp
1565  01D3  	CLRF gbl_17_gbl_zExp
1566  01D4  	CLRF gbl_17_gbl_zExp+D'1'
1567  01DC  	CLRF gbl_17_gbl_aSign
1568  01DD  	CLRF gbl_17_gbl_bSign
1569  01DE  	CLRF gbl_17_gbl_zSign
156A  01DF  	CLRF gbl_17_gbl_zSigZero
156B  01B0  	CLRF gbl_17_gbl_ret
156C  01B1  	CLRF gbl_17_gbl_ret+D'1'
156D  01B2  	CLRF gbl_17_gbl_ret+D'2'
156E  01B3  	CLRF gbl_17_gbl_ret+D'3'
156F  01D8  	CLRF gbl_float_rounding_mode
1570  01D9  	CLRF gbl_float_exception_flags
1571  01D7  	CLRF gbl_float_detect_tininess
1572  118A  	BCF PCLATH,3
1573  160A  	BSF PCLATH,4
1574  2C12  	GOTO	main
	ORG 0x00001575
1575        interrupt
1575        ; { interrupt ; function begin
1575  1283  	BCF STATUS, RP0
1576  1303  	BCF STATUS, RP1
1577  0E52  	SWAPF Int1BContext+D'2', W
1578  0084  	MOVWF FSR
1579  0E51  	SWAPF Int1BContext+D'1', W
157A  008A  	MOVWF PCLATH
157B  0E50  	SWAPF Int1BContext, W
157C  0083  	MOVWF STATUS
157D  0EFF  	SWAPF Int1Context, F
157E  0E7F  	SWAPF Int1Context, W
157F  0009  	RETFIE
1580        ; } interrupt function end

	ORG 0x00002007
2007  3F3A  	DW 0x3F3A
